architecture: aarch64
start address: 0x0000000000003000

Program Header:
    PHDR off    0x0000000000000040 vaddr 0x0000000000000040 paddr 0x0000000000000040 align 2**3
         filesz 0x00000000000002a0 memsz 0x00000000000002a0 flags r--
  INTERP off    0x00000000000002e0 vaddr 0x00000000000002e0 paddr 0x00000000000002e0 align 2**0
         filesz 0x0000000000000015 memsz 0x0000000000000015 flags r--
    LOAD off    0x0000000000000000 vaddr 0x0000000000000000 paddr 0x0000000000000000 align 2**12
         filesz 0x00000000000027cc memsz 0x00000000000027cc flags r--
    LOAD off    0x0000000000003000 vaddr 0x0000000000003000 paddr 0x0000000000003000 align 2**12
         filesz 0x0000000000003200 memsz 0x0000000000003200 flags r-x
    LOAD off    0x0000000000007000 vaddr 0x0000000000007000 paddr 0x0000000000007000 align 2**12
         filesz 0x00000000000005c0 memsz 0x00000000000005c0 flags rw-
    LOAD off    0x00000000000075c0 vaddr 0x00000000000085c0 paddr 0x00000000000085c0 align 2**12
         filesz 0x0000000000000000 memsz 0x0000000000001718 flags rw-
    TLS off    0x0000000000007000 vaddr 0x0000000000007000 paddr 0x0000000000007000 align 2**6
         filesz 0x0000000000000000 memsz 0x0000000000000000 flags r--
 DYNAMIC off    0x00000000000070c8 vaddr 0x00000000000070c8 paddr 0x00000000000070c8 align 2**3
         filesz 0x0000000000000280 memsz 0x0000000000000280 flags rw-
   RELRO off    0x0000000000007000 vaddr 0x0000000000007000 paddr 0x0000000000007000 align 2**0
         filesz 0x00000000000005c0 memsz 0x0000000000001000 flags r--
EH_FRAME off    0x0000000000002140 vaddr 0x0000000000002140 paddr 0x0000000000002140 align 2**2
         filesz 0x0000000000000134 memsz 0x0000000000000134 flags r--
   STACK off    0x0000000000000000 vaddr 0x0000000000000000 paddr 0x0000000000000000 align 2**64
         filesz 0x0000000000000000 memsz 0x0000000000000000 flags rw-
    NOTE off    0x00000000000002f8 vaddr 0x00000000000002f8 paddr 0x00000000000002f8 align 2**2
         filesz 0x0000000000000038 memsz 0x0000000000000038 flags r--

Dynamic Section:
  NEEDED          libandroid_runtime.so
  NEEDED          libbinder.so
  NEEDED          libcutils.so
  NEEDED          libhidlbase.so
  NEEDED          liblog.so
  NEEDED          libnativeloader.so
  NEEDED          libutils.so
  NEEDED          libwilhelm.so
  NEEDED          libc++.so
  NEEDED          libc.so
  NEEDED          libm.so
  NEEDED          libdl.so
  FLAGS           0x0000000000000008
  FLAGS_1         0x0000000000000001
  DEBUG           0x0000000000000000
  ANDROID_RELA    0x0000000000001408
  ANDROID_RELASZ  0x0000000000000012
  RELAENT         0x0000000000000018
  ANDROID_RELR    0x0000000000001420
  ANDROID_RELRSZ  0x0000000000000018
  ANDROID_RELRENT 0x0000000000000008
  JMPREL          0x0000000000001438
  PLTRELSZ        0x00000000000006f0
  PLTGOT          0x0000000000007358
  PLTREL          0x0000000000000007
  SYMTAB          0x0000000000000330
  SYMENT          0x0000000000000018
  STRTAB          0x0000000000000c94
  STRSZ           0x0000000000000770
  GNU_HASH        0x0000000000000c48
  PREINIT_ARRAY   0x0000000000007000
  PREINIT_ARRAYSZ 0x0000000000000010
  INIT_ARRAY      0x0000000000007010
  INIT_ARRAYSZ    0x0000000000000018
  FINI_ARRAY      0x0000000000007028
  FINI_ARRAYSZ    0x0000000000000010
  VERSYM          0x0000000000000b28
  VERNEED         0x0000000000000bd4
  VERNEEDNUM      0x0000000000000003

Version References:
  required from liblog.so:
    0x050d7137 0x00 03 LIBLOG
  required from libc.so:
    0x00050d63 0x00 02 LIBC
    0x050d6940 0x00 05 LIBC_P
  required from libdl.so:
    0x00050d63 0x00 04 LIBC

Sections:
Idx Name                Size     VMA              LMA              Type
  0                     00000000 0000000000000000 0000000000000000 
  1 .interp             00000015 00000000000002e0 00000000000002e0 DATA
  2 .note.android.ident 00000018 00000000000002f8 00000000000002f8 
  3 .note.gnu.build-id  00000020 0000000000000310 0000000000000310 
  4 .dynsym             000007f8 0000000000000330 0000000000000330 
  5 .gnu.version        000000aa 0000000000000b28 0000000000000b28 
  6 .gnu.version_r      00000070 0000000000000bd4 0000000000000bd4 
  7 .gnu.hash           0000004c 0000000000000c48 0000000000000c48 
  8 .dynstr             00000770 0000000000000c94 0000000000000c94 
  9 .rela.dyn           00000012 0000000000001408 0000000000001408 
 10 .relr.dyn           00000018 0000000000001420 0000000000001420 
 11 .rela.plt           000006f0 0000000000001438 0000000000001438 
 12 .rodata             00000618 0000000000001b28 0000000000001b28 DATA
 13 .eh_frame_hdr       00000134 0000000000002140 0000000000002140 DATA
 14 .eh_frame           00000554 0000000000002278 0000000000002278 DATA
 15 .text               00002d38 0000000000003000 0000000000003000 TEXT
 16 .plt                000004c0 0000000000005d40 0000000000005d40 TEXT
 17 .tdata              00000000 0000000000007000 0000000000007000 DATA
 18 .preinit_array      00000010 0000000000007000 0000000000007000 
 19 .init_array         00000018 0000000000007010 0000000000007010 
 20 .fini_array         00000010 0000000000007028 0000000000007028 
 21 .data.rel.ro        00000090 0000000000007038 0000000000007038 DATA
 22 .dynamic            00000280 00000000000070c8 00000000000070c8 
 23 .got                00000010 0000000000007348 0000000000007348 DATA
 24 .got.plt            00000268 0000000000007358 0000000000007358 DATA
 25 .bss                00001718 00000000000085c0 00000000000085c0 BSS
 26 .shstrtab           0000011a 0000000000000000 0000000000000000 
 27 .gnu_debugdata      00000650 0000000000000000 0000000000000000 

SYMBOL TABLE:

DYNAMIC SYMBOL TABLE:
0000000000000000      DF *UND*	0000000000000000 (LIBC)       __libc_init
0000000000000000      DF *UND*	0000000000000000              _ZN7android10VectorImpl13finish_vectorEv
0000000000000000      DF *UND*	0000000000000000              _ZN7android10VectorImpl3addEPKv
0000000000000000      DF *UND*	0000000000000000              _ZN7android10VectorImplC2Emj
0000000000000000      DF *UND*	0000000000000000              _ZN7android10VectorImplD2Ev
0000000000000000      DF *UND*	0000000000000000              _ZN7android12ProcessState15startThreadPoolEv
0000000000000000      DF *UND*	0000000000000000              _ZN7android12ProcessState4selfEv
0000000000000000      DF *UND*	0000000000000000              _ZN7android14AndroidRuntime10getRuntimeEv
0000000000000000      DF *UND*	0000000000000000              _ZN7android14AndroidRuntime16toSlashClassNameEPKc
0000000000000000      DF *UND*	0000000000000000              _ZN7android14AndroidRuntime5startEPKcRKNS_6VectorINS_7String8EEEb
0000000000000000      DF *UND*	0000000000000000              _ZN7android14AndroidRuntime8callMainERKNS_7String8EP7_jclassRKNS_6VectorIS1_EE
0000000000000000      DF *UND*	0000000000000000              _ZN7android14AndroidRuntime8setArgv0EPKcb
0000000000000000      DF *UND*	0000000000000000              _ZN7android14AndroidRuntime9addOptionEPKcPv
0000000000000000      DF *UND*	0000000000000000              _ZN7android14AndroidRuntimeC2EPcm
0000000000000000      DF *UND*	0000000000000000              _ZN7android14AndroidRuntimeD2Ev
0000000000000000      DF *UND*	0000000000000000              _ZN7android14IPCThreadState11stopProcessEb
0000000000000000      DF *UND*	0000000000000000              _ZN7android14IPCThreadState4selfEv
0000000000000000      DF *UND*	0000000000000000              _ZN7android7String85setToEPKc
0000000000000000      DF *UND*	0000000000000000              _ZN7android7String85setToERKS0_
0000000000000000      DF *UND*	0000000000000000              _ZN7android7String86appendEPKc
0000000000000000      DF *UND*	0000000000000000              _ZN7android7String8C1EPKc
0000000000000000      DF *UND*	0000000000000000              _ZN7android7String8C1ERKS0_
0000000000000000      DF *UND*	0000000000000000              _ZN7android7String8C1Ev
0000000000000000      DF *UND*	0000000000000000              _ZN7android7String8D1Ev
0000000000000000      DF *UND*	0000000000000000              _ZN7android8hardware14IPCThreadState11stopProcessEb
0000000000000000      DF *UND*	0000000000000000              _ZN7android8hardware14IPCThreadState4selfEv
0000000000000000      DF *UND*	0000000000000000              _ZNK7android7RefBase9decStrongEPKv
0000000000000000      DF *UND*	0000000000000000              _ZNK7android7String86lengthEv
0000000000000000      DF *UND*	0000000000000000              _ZdlPv
0000000000000000      DF *UND*	0000000000000000 (LIBLOG)     __android_log_assert
0000000000000000      DF *UND*	0000000000000000 (LIBLOG)     __android_log_print
0000000000000000      DF *UND*	0000000000000000 (LIBC)       __errno
0000000000000000      DF *UND*	0000000000000000 (LIBC)       __stack_chk_fail
0000000000000000      DF *UND*	0000000000000000 (LIBC)       __strlen_chk
0000000000000000      DF *UND*	0000000000000000 (LIBC)       chmod
0000000000000000      DF *UND*	0000000000000000 (LIBC)       chown
0000000000000000      DF *UND*	0000000000000000 (LIBC)       free
0000000000000000      DF *UND*	0000000000000000 (LIBC)       fwrite
0000000000000000      DF *UND*	0000000000000000 (LIBC)       getenv
0000000000000000      DF *UND*	0000000000000000 (LIBC)       memmove
0000000000000000      DF *UND*	0000000000000000 (LIBC)       memset
0000000000000000      DF *UND*	0000000000000000 (LIBC)       mkdir
0000000000000000      DF *UND*	0000000000000000              property_get
0000000000000000      DO *UND*	0000000000000000 (LIBC)       stderr
0000000000000000      DF *UND*	0000000000000000 (LIBC)       strcmp
0000000000000000      DF *UND*	0000000000000000 (LIBC)       strdup
0000000000000000      DF *UND*	0000000000000000 (LIBC)       strerror
0000000000000000      DF *UND*	0000000000000000 (LIBC)       strncmp
0000000000000000      DF *UND*	0000000000000000 (LIBC)       vsnprintf
0000000000000000      DF *UND*	0000000000000000 (LIBC)       __assert
0000000000000000      DF *UND*	0000000000000000 (LIBC)       __memcpy_chk
0000000000000000      DF *UND*	0000000000000000 (LIBC)       __strlcpy_chk
0000000000000000      DF *UND*	0000000000000000 (LIBC)       android_set_abort_message
0000000000000000      DF *UND*	0000000000000000 (LIBC)       clock_gettime
0000000000000000      DF *UND*	0000000000000000 (LIBC)       connect
0000000000000000      DF *UND*	0000000000000000 (LIBC)       gettid
0000000000000000      DF *UND*	0000000000000000 (LIBC)       memcpy
0000000000000000      DF *UND*	0000000000000000 (LIBC)       socket
0000000000000000      DF *UND*	0000000000000000 (LIBC)       syscall
0000000000000000      DF *UND*	0000000000000000 (LIBC)       writev
0000000000000000      DF *UND*	0000000000000000              _ZNSt3__111__call_onceERVmPvPFvS2_E
0000000000000000      DF *UND*	0000000000000000              __cxa_guard_acquire
0000000000000000      DF *UND*	0000000000000000              __cxa_guard_release
0000000000000000      DF *UND*	0000000000000000 (LIBC)       abort
0000000000000000      DF *UND*	0000000000000000 (LIBC)       dlerror
0000000000000000      DF *UND*	0000000000000000 (LIBC)       dlopen
0000000000000000      DF *UND*	0000000000000000 (LIBC)       dlsym
0000000000000000      DF *UND*	0000000000000000 (LIBC)       pthread_getspecific
0000000000000000      DF *UND*	0000000000000000 (LIBC)       pthread_key_create
0000000000000000      DF *UND*	0000000000000000 (LIBC)       pthread_setspecific
0000000000000000      DF *UND*	0000000000000000 (LIBC)       sigaddset
0000000000000000      DF *UND*	0000000000000000 (LIBC)       sigdelset
0000000000000000      DF *UND*	0000000000000000 (LIBC)       sigemptyset
0000000000000000      DF *UND*	0000000000000000 (LIBC_P)     sigfillset64
0000000000000000      DF *UND*	0000000000000000 (LIBC)       sigismember
000000000000593c g    DF .text	0000000000000138              .protected EnsureFrontOfChain
0000000000005844 g    DF .text	00000000000000f8              .protected RemoveSpecialSignalHandlerFn
0000000000005078 g    DF .text	0000000000000158              .protected sigaction
00000000000051d0 g    DF .text	0000000000000144              .protected sigaction64
000000000000546c g    DF .text	00000000000000a8              .protected sigprocmask
0000000000005644 g    DF .text	00000000000000a8              .protected sigprocmask64
00000000000056ec g    DF .text	0000000000000158              .protected AddSpecialSignalHandlerFn
0000000000005a74 g    DF .text	0000000000000010              .protected SkipAddSignalHandler
0000000000005314 g    DF .text	0000000000000158              .protected signal

DYNAMIC RELOCATION RECORDS
OFFSET           TYPE                     VALUE
0000000000007370 R_AARCH64_JUMP_SLOT      __libc_init
0000000000007378 R_AARCH64_JUMP_SLOT      __strlen_chk
0000000000007380 R_AARCH64_JUMP_SLOT      _ZN7android14AndroidRuntimeC2EPcm
0000000000007388 R_AARCH64_JUMP_SLOT      _ZN7android7String8C1Ev
0000000000007390 R_AARCH64_JUMP_SLOT      _ZN7android10VectorImplC2Emj
0000000000007398 R_AARCH64_JUMP_SLOT      strdup
00000000000073a0 R_AARCH64_JUMP_SLOT      _ZN7android14AndroidRuntime9addOptionEPKcPv
00000000000073a8 R_AARCH64_JUMP_SLOT      strcmp
00000000000073b0 R_AARCH64_JUMP_SLOT      _ZN7android7String85setToEPKc
00000000000073b8 R_AARCH64_JUMP_SLOT      strncmp
00000000000073c0 R_AARCH64_JUMP_SLOT      __android_log_print
00000000000073c8 R_AARCH64_JUMP_SLOT      _ZNK7android7String86lengthEv
00000000000073d0 R_AARCH64_JUMP_SLOT      _ZN7android7String8C1EPKc
00000000000073d8 R_AARCH64_JUMP_SLOT      _ZN7android10VectorImpl3addEPKv
00000000000073e0 R_AARCH64_JUMP_SLOT      _ZN7android7String8D1Ev
00000000000073e8 R_AARCH64_JUMP_SLOT      _ZN7android7String85setToERKS0_
00000000000073f0 R_AARCH64_JUMP_SLOT      getenv
00000000000073f8 R_AARCH64_JUMP_SLOT      memset
0000000000007400 R_AARCH64_JUMP_SLOT      mkdir
0000000000007408 R_AARCH64_JUMP_SLOT      __errno
0000000000007410 R_AARCH64_JUMP_SLOT      chown
0000000000007418 R_AARCH64_JUMP_SLOT      chmod
0000000000007420 R_AARCH64_JUMP_SLOT      property_get
0000000000007428 R_AARCH64_JUMP_SLOT      _ZN7android7String86appendEPKc
0000000000007430 R_AARCH64_JUMP_SLOT      _ZN7android14AndroidRuntime8setArgv0EPKcb
0000000000007438 R_AARCH64_JUMP_SLOT      _ZN7android14AndroidRuntime5startEPKcRKNS_6VectorINS_7String8EEEb
0000000000007440 R_AARCH64_JUMP_SLOT      _ZN7android10VectorImpl13finish_vectorEv
0000000000007448 R_AARCH64_JUMP_SLOT      _ZN7android10VectorImplD2Ev
0000000000007450 R_AARCH64_JUMP_SLOT      _ZN7android14AndroidRuntimeD2Ev
0000000000007458 R_AARCH64_JUMP_SLOT      __stack_chk_fail
0000000000007460 R_AARCH64_JUMP_SLOT      fwrite
0000000000007468 R_AARCH64_JUMP_SLOT      __android_log_assert
0000000000007470 R_AARCH64_JUMP_SLOT      strerror
0000000000007478 R_AARCH64_JUMP_SLOT      _ZdlPv
0000000000007480 R_AARCH64_JUMP_SLOT      _ZN7android14AndroidRuntime16toSlashClassNameEPKc
0000000000007488 R_AARCH64_JUMP_SLOT      free
0000000000007490 R_AARCH64_JUMP_SLOT      _ZN7android12ProcessState4selfEv
0000000000007498 R_AARCH64_JUMP_SLOT      _ZN7android12ProcessState15startThreadPoolEv
00000000000074a0 R_AARCH64_JUMP_SLOT      _ZN7android14AndroidRuntime10getRuntimeEv
00000000000074a8 R_AARCH64_JUMP_SLOT      _ZN7android14AndroidRuntime8callMainERKNS_7String8EP7_jclassRKNS_6VectorIS1_EE
00000000000074b0 R_AARCH64_JUMP_SLOT      _ZN7android14IPCThreadState4selfEv
00000000000074b8 R_AARCH64_JUMP_SLOT      _ZN7android14IPCThreadState11stopProcessEb
00000000000074c0 R_AARCH64_JUMP_SLOT      _ZN7android8hardware14IPCThreadState4selfEv
00000000000074c8 R_AARCH64_JUMP_SLOT      _ZN7android8hardware14IPCThreadState11stopProcessEb
00000000000074d0 R_AARCH64_JUMP_SLOT      _ZNK7android7RefBase9decStrongEPKv
00000000000074d8 R_AARCH64_JUMP_SLOT      vsnprintf
00000000000074e0 R_AARCH64_JUMP_SLOT      _ZN7android7String8C1ERKS0_
00000000000074e8 R_AARCH64_JUMP_SLOT      memmove
00000000000074f0 R_AARCH64_JUMP_SLOT      memcpy
00000000000074f8 R_AARCH64_JUMP_SLOT      __assert
0000000000007500 R_AARCH64_JUMP_SLOT      socket
0000000000007508 R_AARCH64_JUMP_SLOT      __strlcpy_chk
0000000000007510 R_AARCH64_JUMP_SLOT      connect
0000000000007518 R_AARCH64_JUMP_SLOT      gettid
0000000000007520 R_AARCH64_JUMP_SLOT      clock_gettime
0000000000007528 R_AARCH64_JUMP_SLOT      writev
0000000000007530 R_AARCH64_JUMP_SLOT      syscall
0000000000007538 R_AARCH64_JUMP_SLOT      __memcpy_chk
0000000000007540 R_AARCH64_JUMP_SLOT      android_set_abort_message
0000000000007548 R_AARCH64_JUMP_SLOT      _ZNSt3__111__call_onceERVmPvPFvS2_E
0000000000007550 R_AARCH64_JUMP_SLOT      pthread_getspecific
0000000000007558 R_AARCH64_JUMP_SLOT      sigemptyset
0000000000007560 R_AARCH64_JUMP_SLOT      sigaddset
0000000000007568 R_AARCH64_JUMP_SLOT      sigismember
0000000000007570 R_AARCH64_JUMP_SLOT      pthread_setspecific
0000000000007578 R_AARCH64_JUMP_SLOT      abort
0000000000007580 R_AARCH64_JUMP_SLOT      sigdelset
0000000000007588 R_AARCH64_JUMP_SLOT      sigfillset64
0000000000007590 R_AARCH64_JUMP_SLOT      pthread_key_create
0000000000007598 R_AARCH64_JUMP_SLOT      dlsym
00000000000075a0 R_AARCH64_JUMP_SLOT      __cxa_guard_acquire
00000000000075a8 R_AARCH64_JUMP_SLOT      dlopen
00000000000075b0 R_AARCH64_JUMP_SLOT      __cxa_guard_release
00000000000075b8 R_AARCH64_JUMP_SLOT      dlerror
Contents of section .interp:
 02e0 2f737973 74656d2f 62696e2f 6c696e6b  /system/bin/link
 02f0 65723634 00                          er64.
Contents of section .note.android.ident:
 02f8 08000000 04000000 01000000 416e6472  ............Andr
 0308 6f696400 1e000000                    oid.....
Contents of section .note.gnu.build-id:
 0310 04000000 10000000 03000000 474e5500  ............GNU.
 0320 ca1d27a2 3d62c1e0 fc383521 fde7e8a9  ..'.=b...85!....
Contents of section .dynsym:
 0330 00000000 00000000 00000000 00000000  ................
 0340 00000000 00000000 01000000 12000000  ................
 0350 00000000 00000000 00000000 00000000  ................
 0360 0d000000 12000000 00000000 00000000  ................
 0370 00000000 00000000 36000000 12000000  ........6.......
 0380 00000000 00000000 00000000 00000000  ................
 0390 56000000 12000000 00000000 00000000  V...............
 03a0 00000000 00000000 73000000 12000000  ........s.......
 03b0 00000000 00000000 00000000 00000000  ................
 03c0 8f000000 12000000 00000000 00000000  ................
 03d0 00000000 00000000 bc000000 12000000  ................
 03e0 00000000 00000000 00000000 00000000  ................
 03f0 dd000000 12000000 00000000 00000000  ................
 0400 00000000 00000000 07010000 12000000  ................
 0410 00000000 00000000 00000000 00000000  ................
 0420 39010000 12000000 00000000 00000000  9...............
 0430 00000000 00000000 7b010000 12000000  ........{.......
 0440 00000000 00000000 00000000 00000000  ................
 0450 ca010000 12000000 00000000 00000000  ................
 0460 00000000 00000000 f4010000 12000000  ................
 0470 00000000 00000000 00000000 00000000  ................
 0480 20020000 12000000 00000000 00000000   ...............
 0490 00000000 00000000 42020000 12000000  ........B.......
 04a0 00000000 00000000 00000000 00000000  ................
 04b0 62020000 12000000 00000000 00000000  b...............
 04c0 00000000 00000000 8d020000 12000000  ................
 04d0 00000000 00000000 00000000 00000000  ................
 04e0 b0020000 12000000 00000000 00000000  ................
 04f0 00000000 00000000 ce020000 12000000  ................
 0500 00000000 00000000 00000000 00000000  ................
 0510 ee020000 12000000 00000000 00000000  ................
 0520 00000000 00000000 0d030000 12000000  ................
 0530 00000000 00000000 00000000 00000000  ................
 0540 27030000 12000000 00000000 00000000  '...............
 0550 00000000 00000000 43030000 12000000  ........C.......
 0560 00000000 00000000 00000000 00000000  ................
 0570 5b030000 12000000 00000000 00000000  [...............
 0580 00000000 00000000 73030000 12000000  ........s.......
 0590 00000000 00000000 00000000 00000000  ................
 05a0 a7030000 12000000 00000000 00000000  ................
 05b0 00000000 00000000 d3030000 12000000  ................
 05c0 00000000 00000000 00000000 00000000  ................
 05d0 f6030000 12000000 00000000 00000000  ................
 05e0 00000000 00000000 14040000 12000000  ................
 05f0 00000000 00000000 00000000 00000000  ................
 0600 1b040000 12000000 00000000 00000000  ................
 0610 00000000 00000000 30040000 12000000  ........0.......
 0620 00000000 00000000 00000000 00000000  ................
 0630 44040000 12000000 00000000 00000000  D...............
 0640 00000000 00000000 4c040000 12000000  ........L.......
 0650 00000000 00000000 00000000 00000000  ................
 0660 5d040000 12000000 00000000 00000000  ]...............
 0670 00000000 00000000 6a040000 12000000  ........j.......
 0680 00000000 00000000 00000000 00000000  ................
 0690 70040000 12000000 00000000 00000000  p...............
 06a0 00000000 00000000 76040000 12000000  ........v.......
 06b0 00000000 00000000 00000000 00000000  ................
 06c0 7b040000 12000000 00000000 00000000  {...............
 06d0 00000000 00000000 82040000 12000000  ................
 06e0 00000000 00000000 00000000 00000000  ................
 06f0 89040000 12000000 00000000 00000000  ................
 0700 00000000 00000000 91040000 12000000  ................
 0710 00000000 00000000 00000000 00000000  ................
 0720 98040000 12000000 00000000 00000000  ................
 0730 00000000 00000000 9e040000 12000000  ................
 0740 00000000 00000000 00000000 00000000  ................
 0750 ab040000 11000000 00000000 00000000  ................
 0760 00000000 00000000 b2040000 12000000  ................
 0770 00000000 00000000 00000000 00000000  ................
 0780 b9040000 12000000 00000000 00000000  ................
 0790 00000000 00000000 c0040000 12000000  ................
 07a0 00000000 00000000 00000000 00000000  ................
 07b0 c9040000 12000000 00000000 00000000  ................
 07c0 00000000 00000000 d1040000 12000000  ................
 07d0 00000000 00000000 00000000 00000000  ................
 07e0 db040000 12000000 00000000 00000000  ................
 07f0 00000000 00000000 e4040000 12000000  ................
 0800 00000000 00000000 00000000 00000000  ................
 0810 f1040000 12000000 00000000 00000000  ................
 0820 00000000 00000000 ff040000 12000000  ................
 0830 00000000 00000000 00000000 00000000  ................
 0840 19050000 12000000 00000000 00000000  ................
 0850 00000000 00000000 27050000 12000000  ........'.......
 0860 00000000 00000000 00000000 00000000  ................
 0870 2f050000 12000000 00000000 00000000  /...............
 0880 00000000 00000000 36050000 12000000  ........6.......
 0890 00000000 00000000 00000000 00000000  ................
 08a0 3d050000 12000000 00000000 00000000  =...............
 08b0 00000000 00000000 44050000 12000000  ........D.......
 08c0 00000000 00000000 00000000 00000000  ................
 08d0 4c050000 12000000 00000000 00000000  L...............
 08e0 00000000 00000000 b2050000 12000000  ................
 08f0 00000000 00000000 00000000 00000000  ................
 0900 d6050000 12000000 00000000 00000000  ................
 0910 00000000 00000000 ea050000 12000000  ................
 0920 00000000 00000000 00000000 00000000  ................
 0930 fe050000 12000000 00000000 00000000  ................
 0940 00000000 00000000 04060000 12000000  ................
 0950 00000000 00000000 00000000 00000000  ................
 0960 0c060000 12000000 00000000 00000000  ................
 0970 00000000 00000000 13060000 12000000  ................
 0980 00000000 00000000 00000000 00000000  ................
 0990 19060000 12000000 00000000 00000000  ................
 09a0 00000000 00000000 2d060000 12000000  ........-.......
 09b0 00000000 00000000 00000000 00000000  ................
 09c0 40060000 12000000 00000000 00000000  @...............
 09d0 00000000 00000000 6a060000 12000000  ........j.......
 09e0 00000000 00000000 00000000 00000000  ................
 09f0 74060000 12000000 00000000 00000000  t...............
 0a00 00000000 00000000 7e060000 12000000  ........~.......
 0a10 00000000 00000000 00000000 00000000  ................
 0a20 8a060000 12000000 00000000 00000000  ................
 0a30 00000000 00000000 97060000 12000000  ................
 0a40 00000000 00000000 00000000 00000000  ................
 0a50 6d050000 12030f00 3c590000 00000000  m.......<Y......
 0a60 38010000 00000000 80050000 12030f00  8...............
 0a70 44580000 00000000 f8000000 00000000  DX..............
 0a80 54060000 12030f00 78500000 00000000  T.......xP......
 0a90 58010000 00000000 5e060000 12030f00  X.......^.......
 0aa0 d0510000 00000000 44010000 00000000  .Q......D.......
 0ab0 aa060000 12030f00 6c540000 00000000  ........lT......
 0ac0 a8000000 00000000 b6060000 12030f00  ................
 0ad0 44560000 00000000 a8000000 00000000  DV..............
 0ae0 53050000 12030f00 ec560000 00000000  S........V......
 0af0 58010000 00000000 9d050000 12030f00  X...............
 0b00 745a0000 00000000 10000000 00000000  tZ..............
 0b10 a3060000 12030f00 14530000 00000000  .........S......
 0b20 58010000 00000000                    X.......
Contents of section .gnu.version:
 0b28 00000200 01000100 01000100 01000100  ................
 0b38 01000100 01000100 01000100 01000100  ................
 0b48 01000100 01000100 01000100 01000100  ................
 0b58 01000100 01000100 01000100 03000300  ................
 0b68 02000200 02000200 02000200 02000200  ................
 0b78 02000200 02000100 02000200 02000200  ................
 0b88 02000200 02000200 02000200 02000200  ................
 0b98 02000200 02000200 02000100 01000100  ................
 0ba8 02000400 04000400 02000200 02000200  ................
 0bb8 02000200 05000200 01000100 01000100  ................
 0bc8 01000100 01000100 0100               ..........
Contents of section .gnu.version_r:
 0bd4 01000100 c4060000 30000000 10000000  ........0.......
 0be4 01000200 d5060000 30000000 10000000  ........0.......
 0bf4 01000100 e9060000 40000000 00000000  ........@.......
 0c04 37710d05 00000300 ce060000 00000000  7q..............
 0c14 630d0500 00000200 dd060000 10000000  c...............
 0c24 40690d05 00000500 e2060000 00000000  @i..............
 0c34 630d0500 00000400 dd060000 00000000  c...............
Contents of section .gnu.hash:
 0c48 02000000 4c000000 02000000 1a000000  ....L...........
 0c58 00000101 10000c80 4e010100 08480500  ........N....H..
 0c68 4c000000 52000000 1877afc8 a43cb1ce  L...R....w...<..
 0c78 4658370f f0886eba 48ebdb08 73e483af  FX7...n.H...s...
 0c88 3e1fb042 401db742 e3adc61b           >..B@..B....
Contents of section .dynstr:
 0c94 005f5f6c 6962635f 696e6974 005f5a4e  .__libc_init._ZN
 0ca4 37616e64 726f6964 31305665 63746f72  7android10Vector
 0cb4 496d706c 31336669 6e697368 5f766563  Impl13finish_vec
 0cc4 746f7245 76005f5a 4e37616e 64726f69  torEv._ZN7androi
 0cd4 64313056 6563746f 72496d70 6c336164  d10VectorImpl3ad
 0ce4 6445504b 76005f5a 4e37616e 64726f69  dEPKv._ZN7androi
 0cf4 64313056 6563746f 72496d70 6c433245  d10VectorImplC2E
 0d04 6d6a005f 5a4e3761 6e64726f 69643130  mj._ZN7android10
 0d14 56656374 6f72496d 706c4432 4576005f  VectorImplD2Ev._
 0d24 5a4e3761 6e64726f 69643132 50726f63  ZN7android12Proc
 0d34 65737353 74617465 31357374 61727454  essState15startT
 0d44 68726561 64506f6f 6c457600 5f5a4e37  hreadPoolEv._ZN7
 0d54 616e6472 6f696431 3250726f 63657373  android12Process
 0d64 53746174 65347365 6c664576 005f5a4e  State4selfEv._ZN
 0d74 37616e64 726f6964 3134416e 64726f69  7android14Androi
 0d84 6452756e 74696d65 31306765 7452756e  dRuntime10getRun
 0d94 74696d65 4576005f 5a4e3761 6e64726f  timeEv._ZN7andro
 0da4 69643134 416e6472 6f696452 756e7469  id14AndroidRunti
 0db4 6d653136 746f536c 61736843 6c617373  me16toSlashClass
 0dc4 4e616d65 45504b63 005f5a4e 37616e64  NameEPKc._ZN7and
 0dd4 726f6964 3134416e 64726f69 6452756e  roid14AndroidRun
 0de4 74696d65 35737461 72744550 4b63524b  time5startEPKcRK
 0df4 4e535f36 56656374 6f72494e 535f3753  NS_6VectorINS_7S
 0e04 7472696e 67384545 4562005f 5a4e3761  tring8EEEb._ZN7a
 0e14 6e64726f 69643134 416e6472 6f696452  ndroid14AndroidR
 0e24 756e7469 6d653863 616c6c4d 61696e45  untime8callMainE
 0e34 524b4e53 5f375374 72696e67 38455037  RKNS_7String8EP7
 0e44 5f6a636c 61737352 4b4e535f 36566563  _jclassRKNS_6Vec
 0e54 746f7249 53315f45 45005f5a 4e37616e  torIS1_EE._ZN7an
 0e64 64726f69 64313441 6e64726f 69645275  droid14AndroidRu
 0e74 6e74696d 65387365 74417267 76304550  ntime8setArgv0EP
 0e84 4b636200 5f5a4e37 616e6472 6f696431  Kcb._ZN7android1
 0e94 34416e64 726f6964 52756e74 696d6539  4AndroidRuntime9
 0ea4 6164644f 7074696f 6e45504b 63507600  addOptionEPKcPv.
 0eb4 5f5a4e37 616e6472 6f696431 34416e64  _ZN7android14And
 0ec4 726f6964 52756e74 696d6543 32455063  roidRuntimeC2EPc
 0ed4 6d005f5a 4e37616e 64726f69 64313441  m._ZN7android14A
 0ee4 6e64726f 69645275 6e74696d 65443245  ndroidRuntimeD2E
 0ef4 76005f5a 4e37616e 64726f69 64313449  v._ZN7android14I
 0f04 50435468 72656164 53746174 65313173  PCThreadState11s
 0f14 746f7050 726f6365 73734562 005f5a4e  topProcessEb._ZN
 0f24 37616e64 726f6964 31344950 43546872  7android14IPCThr
 0f34 65616453 74617465 3473656c 66457600  eadState4selfEv.
 0f44 5f5a4e37 616e6472 6f696437 53747269  _ZN7android7Stri
 0f54 6e673835 73657454 6f45504b 63005f5a  ng85setToEPKc._Z
 0f64 4e37616e 64726f69 64375374 72696e67  N7android7String
 0f74 38357365 74546f45 524b5330 5f005f5a  85setToERKS0_._Z
 0f84 4e37616e 64726f69 64375374 72696e67  N7android7String
 0f94 38366170 70656e64 45504b63 005f5a4e  86appendEPKc._ZN
 0fa4 37616e64 726f6964 37537472 696e6738  7android7String8
 0fb4 43314550 4b63005f 5a4e3761 6e64726f  C1EPKc._ZN7andro
 0fc4 69643753 7472696e 67384331 45524b53  id7String8C1ERKS
 0fd4 305f005f 5a4e3761 6e64726f 69643753  0_._ZN7android7S
 0fe4 7472696e 67384331 4576005f 5a4e3761  tring8C1Ev._ZN7a
 0ff4 6e64726f 69643753 7472696e 67384431  ndroid7String8D1
 1004 4576005f 5a4e3761 6e64726f 69643868  Ev._ZN7android8h
 1014 61726477 61726531 34495043 54687265  ardware14IPCThre
 1024 61645374 61746531 3173746f 7050726f  adState11stopPro
 1034 63657373 4562005f 5a4e3761 6e64726f  cessEb._ZN7andro
 1044 69643868 61726477 61726531 34495043  id8hardware14IPC
 1054 54687265 61645374 61746534 73656c66  ThreadState4self
 1064 4576005f 5a4e4b37 616e6472 6f696437  Ev._ZNK7android7
 1074 52656642 61736539 64656353 74726f6e  RefBase9decStron
 1084 6745504b 76005f5a 4e4b3761 6e64726f  gEPKv._ZNK7andro
 1094 69643753 7472696e 6738366c 656e6774  id7String86lengt
 10a4 68457600 5f5a646c 5076005f 5f616e64  hEv._ZdlPv.__and
 10b4 726f6964 5f6c6f67 5f617373 65727400  roid_log_assert.
 10c4 5f5f616e 64726f69 645f6c6f 675f7072  __android_log_pr
 10d4 696e7400 5f5f6572 726e6f00 5f5f7374  int.__errno.__st
 10e4 61636b5f 63686b5f 6661696c 005f5f73  ack_chk_fail.__s
 10f4 74726c65 6e5f6368 6b006368 6d6f6400  trlen_chk.chmod.
 1104 63686f77 6e006672 65650066 77726974  chown.free.fwrit
 1114 65006765 74656e76 006d656d 6d6f7665  e.getenv.memmove
 1124 006d656d 73657400 6d6b6469 72007072  .memset.mkdir.pr
 1134 6f706572 74795f67 65740073 74646572  operty_get.stder
 1144 72007374 72636d70 00737472 64757000  r.strcmp.strdup.
 1154 73747265 72726f72 00737472 6e636d70  strerror.strncmp
 1164 0076736e 7072696e 7466005f 5f617373  .vsnprintf.__ass
 1174 65727400 5f5f6d65 6d637079 5f63686b  ert.__memcpy_chk
 1184 005f5f73 74726c63 70795f63 686b0061  .__strlcpy_chk.a
 1194 6e64726f 69645f73 65745f61 626f7274  ndroid_set_abort
 11a4 5f6d6573 73616765 00636c6f 636b5f67  _message.clock_g
 11b4 65747469 6d650063 6f6e6e65 63740067  ettime.connect.g
 11c4 65747469 64006d65 6d637079 00736f63  ettid.memcpy.soc
 11d4 6b657400 73797363 616c6c00 77726974  ket.syscall.writ
 11e4 65760041 64645370 65636961 6c536967  ev.AddSpecialSig
 11f4 6e616c48 616e646c 6572466e 00456e73  nalHandlerFn.Ens
 1204 75726546 726f6e74 4f664368 61696e00  ureFrontOfChain.
 1214 52656d6f 76655370 65636961 6c536967  RemoveSpecialSig
 1224 6e616c48 616e646c 6572466e 00536b69  nalHandlerFn.Ski
 1234 70416464 5369676e 616c4861 6e646c65  pAddSignalHandle
 1244 72005f5a 4e537433 5f5f3131 315f5f63  r._ZNSt3__111__c
 1254 616c6c5f 6f6e6365 4552566d 50765046  all_onceERVmPvPF
 1264 7653325f 45005f5f 6378615f 67756172  vS2_E.__cxa_guar
 1274 645f6163 71756972 65005f5f 6378615f  d_acquire.__cxa_
 1284 67756172 645f7265 6c656173 65006162  guard_release.ab
 1294 6f727400 646c6572 726f7200 646c6f70  ort.dlerror.dlop
 12a4 656e0064 6c73796d 00707468 72656164  en.dlsym.pthread
 12b4 5f676574 73706563 69666963 00707468  _getspecific.pth
 12c4 72656164 5f6b6579 5f637265 61746500  read_key_create.
 12d4 70746872 6561645f 73657473 70656369  pthread_setspeci
 12e4 66696300 73696761 6374696f 6e007369  fic.sigaction.si
 12f4 67616374 696f6e36 34007369 67616464  gaction64.sigadd
 1304 73657400 73696764 656c7365 74007369  set.sigdelset.si
 1314 67656d70 74797365 74007369 6766696c  gemptyset.sigfil
 1324 6c736574 36340073 69676973 6d656d62  lset64.sigismemb
 1334 65720073 69676e61 6c007369 6770726f  er.signal.sigpro
 1344 636d6173 6b007369 6770726f 636d6173  cmask.sigprocmas
 1354 6b363400 6c69626c 6f672e73 6f004c49  k64.liblog.so.LI
 1364 424c4f47 006c6962 632e736f 004c4942  BLOG.libc.so.LIB
 1374 43004c49 42435f50 006c6962 646c2e73  C.LIBC_P.libdl.s
 1384 6f006c69 62616e64 726f6964 5f72756e  o.libandroid_run
 1394 74696d65 2e736f00 6c696262 696e6465  time.so.libbinde
 13a4 722e736f 006c6962 63757469 6c732e73  r.so.libcutils.s
 13b4 6f006c69 62686964 6c626173 652e736f  o.libhidlbase.so
 13c4 006c6962 6e617469 76656c6f 61646572  .libnativeloader
 13d4 2e736f00 6c696275 74696c73 2e736f00  .so.libutils.so.
 13e4 6c696277 696c6865 6c6d2e73 6f006c69  libwilhelm.so.li
 13f4 62632b2b 2e736f00 6c69626d 2e736f00  bc++.so.libm.so.
Contents of section .rela.dyn:
 1408 41505332 01000108 d0e60181 888080c0  APS2............
 1418 0500                                 ..
Contents of section .relr.dyn:
 1420 18700000 00000000 c1cf3f00 00000000  .p........?.....
 1430 01000000 80000000                    ........
Contents of section .rela.plt:
 1438 70730000 00000000 02040000 01000000  ps..............
 1448 00000000 00000000 78730000 00000000  ........xs......
 1458 02040000 22000000 00000000 00000000  ...."...........
 1468 80730000 00000000 02040000 0e000000  .s..............
 1478 00000000 00000000 88730000 00000000  .........s......
 1488 02040000 17000000 00000000 00000000  ................
 1498 90730000 00000000 02040000 04000000  .s..............
 14a8 00000000 00000000 98730000 00000000  .........s......
 14b8 02040000 2e000000 00000000 00000000  ................
 14c8 a0730000 00000000 02040000 0d000000  .s..............
 14d8 00000000 00000000 a8730000 00000000  .........s......
 14e8 02040000 2d000000 00000000 00000000  ....-...........
 14f8 b0730000 00000000 02040000 12000000  .s..............
 1508 00000000 00000000 b8730000 00000000  .........s......
 1518 02040000 30000000 00000000 00000000  ....0...........
 1528 c0730000 00000000 02040000 1f000000  .s..............
 1538 00000000 00000000 c8730000 00000000  .........s......
 1548 02040000 1c000000 00000000 00000000  ................
 1558 d0730000 00000000 02040000 15000000  .s..............
 1568 00000000 00000000 d8730000 00000000  .........s......
 1578 02040000 03000000 00000000 00000000  ................
 1588 e0730000 00000000 02040000 18000000  .s..............
 1598 00000000 00000000 e8730000 00000000  .........s......
 15a8 02040000 13000000 00000000 00000000  ................
 15b8 f0730000 00000000 02040000 27000000  .s..........'...
 15c8 00000000 00000000 f8730000 00000000  .........s......
 15d8 02040000 29000000 00000000 00000000  ....)...........
 15e8 00740000 00000000 02040000 2a000000  .t..........*...
 15f8 00000000 00000000 08740000 00000000  .........t......
 1608 02040000 20000000 00000000 00000000  .... ...........
 1618 10740000 00000000 02040000 24000000  .t..........$...
 1628 00000000 00000000 18740000 00000000  .........t......
 1638 02040000 23000000 00000000 00000000  ....#...........
 1648 20740000 00000000 02040000 2b000000   t..........+...
 1658 00000000 00000000 28740000 00000000  ........(t......
 1668 02040000 14000000 00000000 00000000  ................
 1678 30740000 00000000 02040000 0c000000  0t..............
 1688 00000000 00000000 38740000 00000000  ........8t......
 1698 02040000 0a000000 00000000 00000000  ................
 16a8 40740000 00000000 02040000 02000000  @t..............
 16b8 00000000 00000000 48740000 00000000  ........Ht......
 16c8 02040000 05000000 00000000 00000000  ................
 16d8 50740000 00000000 02040000 0f000000  Pt..............
 16e8 00000000 00000000 58740000 00000000  ........Xt......
 16f8 02040000 21000000 00000000 00000000  ....!...........
 1708 60740000 00000000 02040000 26000000  `t..........&...
 1718 00000000 00000000 68740000 00000000  ........ht......
 1728 02040000 1e000000 00000000 00000000  ................
 1738 70740000 00000000 02040000 2f000000  pt........../...
 1748 00000000 00000000 78740000 00000000  ........xt......
 1758 02040000 1d000000 00000000 00000000  ................
 1768 80740000 00000000 02040000 09000000  .t..............
 1778 00000000 00000000 88740000 00000000  .........t......
 1788 02040000 25000000 00000000 00000000  ....%...........
 1798 90740000 00000000 02040000 07000000  .t..............
 17a8 00000000 00000000 98740000 00000000  .........t......
 17b8 02040000 06000000 00000000 00000000  ................
 17c8 a0740000 00000000 02040000 08000000  .t..............
 17d8 00000000 00000000 a8740000 00000000  .........t......
 17e8 02040000 0b000000 00000000 00000000  ................
 17f8 b0740000 00000000 02040000 11000000  .t..............
 1808 00000000 00000000 b8740000 00000000  .........t......
 1818 02040000 10000000 00000000 00000000  ................
 1828 c0740000 00000000 02040000 1a000000  .t..............
 1838 00000000 00000000 c8740000 00000000  .........t......
 1848 02040000 19000000 00000000 00000000  ................
 1858 d0740000 00000000 02040000 1b000000  .t..............
 1868 00000000 00000000 d8740000 00000000  .........t......
 1878 02040000 31000000 00000000 00000000  ....1...........
 1888 e0740000 00000000 02040000 16000000  .t..............
 1898 00000000 00000000 e8740000 00000000  .........t......
 18a8 02040000 28000000 00000000 00000000  ....(...........
 18b8 f0740000 00000000 02040000 39000000  .t..........9...
 18c8 00000000 00000000 f8740000 00000000  .........t......
 18d8 02040000 32000000 00000000 00000000  ....2...........
 18e8 00750000 00000000 02040000 3a000000  .u..........:...
 18f8 00000000 00000000 08750000 00000000  .........u......
 1908 02040000 34000000 00000000 00000000  ....4...........
 1918 10750000 00000000 02040000 37000000  .u..........7...
 1928 00000000 00000000 18750000 00000000  .........u......
 1938 02040000 38000000 00000000 00000000  ....8...........
 1948 20750000 00000000 02040000 36000000   u..........6...
 1958 00000000 00000000 28750000 00000000  ........(u......
 1968 02040000 3c000000 00000000 00000000  ....<...........
 1978 30750000 00000000 02040000 3b000000  0u..........;...
 1988 00000000 00000000 38750000 00000000  ........8u......
 1998 02040000 33000000 00000000 00000000  ....3...........
 19a8 40750000 00000000 02040000 35000000  @u..........5...
 19b8 00000000 00000000 48750000 00000000  ........Hu......
 19c8 02040000 3d000000 00000000 00000000  ....=...........
 19d8 50750000 00000000 02040000 44000000  Pu..........D...
 19e8 00000000 00000000 58750000 00000000  ........Xu......
 19f8 02040000 49000000 00000000 00000000  ....I...........
 1a08 60750000 00000000 02040000 47000000  `u..........G...
 1a18 00000000 00000000 68750000 00000000  ........hu......
 1a28 02040000 4b000000 00000000 00000000  ....K...........
 1a38 70750000 00000000 02040000 46000000  pu..........F...
 1a48 00000000 00000000 78750000 00000000  ........xu......
 1a58 02040000 40000000 00000000 00000000  ....@...........
 1a68 80750000 00000000 02040000 48000000  .u..........H...
 1a78 00000000 00000000 88750000 00000000  .........u......
 1a88 02040000 4a000000 00000000 00000000  ....J...........
 1a98 90750000 00000000 02040000 45000000  .u..........E...
 1aa8 00000000 00000000 98750000 00000000  .........u......
 1ab8 02040000 43000000 00000000 00000000  ....C...........
 1ac8 a0750000 00000000 02040000 3e000000  .u..........>...
 1ad8 00000000 00000000 a8750000 00000000  .........u......
 1ae8 02040000 42000000 00000000 00000000  ....B...........
 1af8 b0750000 00000000 02040000 3f000000  .u..........?...
 1b08 00000000 00000000 b8750000 00000000  .........u......
 1b18 02040000 41000000 00000000 00000000  ....A...........
Contents of section .rodata:
 1b28 2d2d7a79 676f7465 00617070 6c696361  --zygote.applica
 1b38 74696f6e 002d2d61 70706c69 63617469  tion.--applicati
 1b48 6f6e0066 61696c65 6420746f 20637265  on.failed to cre
 1b58 61746520 73696763 6861696e 20707468  ate sigchain pth
 1b68 72656164 206b6579 3a202573 00617070  read key: %s.app
 1b78 5f70726f 63657373 3a20556e 61626c65  _process: Unable
 1b88 20746f20 64657465 726d696e 65204142   to determine AB
 1b98 49206c69 73742066 726f6d20 70726f70  I list from prop
 1ba8 65727479 2025732e 00457272 6f723a20  erty %s..Error: 
 1bb8 6e6f2063 6c617373 206e616d 65206f72  no class name or
 1bc8 202d2d7a 79676f74 65207375 70706c69   --zygote suppli
 1bd8 65642e0a 00636f6d 2e616e64 726f6964  ed...com.android
 1be8 2e696e74 65726e61 6c2e6f73 2e5a7967  .internal.os.Zyg
 1bf8 6f746549 6e697400 7369676e 2f707265  oteInit.sign/pre
 1c08 63697369 6f6e2075 6e737570 706f7274  cision unsupport
 1c18 65640073 69677072 6f636d61 736b3634  ed.sigprocmask64
 1c28 00556e61 626c6520 746f2066 696e6420  .Unable to find 
 1c38 6e657874 20257320 696e2073 69676e61  next %s in signa
 1c48 6c206368 61696e00 28726573 756c7420  l chain.(result 
 1c58 3c203029 002f6465 762f736f 636b6574  < 0)./dev/socket
 1c68 2f6c6f67 6477006c 69626300 2d2d7374  /logdw.libc.--st
 1c78 6172742d 73797374 656d2d73 65727665  art-system-serve
 1c88 72006c69 62736967 63686169 6e005761  r.libsigchain.Wa
 1c98 726e696e 673a2055 6e657870 65637465  rning: Unexpecte
 1ca8 64207369 67616374 696f6e20 61637469  d sigaction acti
 1cb8 6f6e2066 6f756e64 2025700a 00287265  on found %p..(re
 1cc8 73756c74 203c2030 20262620 6572726e  sult < 0 && errn
 1cd8 6f20213d 20454558 49535429 00736967  o != EEXIST).sig
 1ce8 61637469 6f6e3634 002d2d6e 6963652d  action64.--nice-
 1cf8 6e616d65 3d002d2d 6162692d 6c697374  name=.--abi-list
 1d08 3d006578 6974696e 67206475 6520746f  =.exiting due to
 1d18 20534947 5f44464c 2068616e 646c6572   SIG_DFL handler
 1d28 20666f72 20736967 6e616c20 25640021   for signal %d.!
 1d38 40426f6f 745f4542 535f463a 20737461  @Boot_EBS_F: sta
 1d48 7274207a 79676f74 65206672 6f6d2061  rt zygote from a
 1d58 70706d61 696e0062 696f6e69 632f6c69  ppmain.bionic/li
 1d68 62632f61 73796e63 5f736166 652f6173  bc/async_safe/as
 1d78 796e635f 73616665 5f6c6f67 2e637070  ync_safe_log.cpp
 1d88 006c6962 632e736f 00746f6f 206d616e  .libc.so.too man
 1d98 79207370 65636961 6c207369 676e616c  y special signal
 1da8 2068616e 646c6572 7300414e 44524f49   handlers.ANDROI
 1db8 445f4441 54410066 61696c65 6420746f  D_DATA.failed to
 1dc8 20646c6f 70656e20 25733a20 2573003a   dlopen %s: %s.:
 1dd8 2000496e 76616c69 64207369 676e616c   .Invalid signal
 1de8 20256400 73696770 726f636d 61736b00   %d.sigprocmask.
 1df8 2d637000 4572726f 7220636f 6e737472  -cp.Error constr
 1e08 75637469 6e672064 616c7669 6b206361  ucting dalvik ca
 1e18 63686520 3a202573 000a0074 6f6f6c00  che : %s...tool.
 1e28 4572726f 72206372 65617469 6e672063  Error creating c
 1e38 61636865 20646972 20257320 3a202573  ache dir %s : %s
 1e48 00636f6e 76657273 696f6e20 73706563  .conversion spec
 1e58 69666965 7220756e 73757070 6f727465  ifier unsupporte
 1e68 6400286e 756c6c29 00616e64 726f6964  d.(null).android
 1e78 526f6f74 203d3d20 4e554c4c 00414e44  Root == NULL.AND
 1e88 524f4944 5f444154 4120656e 7669726f  ROID_DATA enviro
 1e98 6e6d656e 74207661 72696162 6c652075  nment variable u
 1ea8 6e736574 00666169 6c656420 746f2066  nset.failed to f
 1eb8 696e6420 73706563 69616c20 68616e64  ind special hand
 1ec8 6c657220 746f2072 656d6f76 65002d63  ler to remove.-c
 1ed8 6c617373 70617468 00737461 72742d73  lasspath.start-s
 1ee8 79737465 6d2d7365 72766572 002d2d00  ystem-server.--.
 1ef8 61707070 726f6300 6170705f 70726f63  appproc.app_proc
 1f08 6573733a 206e6f20 636c6173 73206e61  ess: no class na
 1f18 6d65206f 72202d2d 7a79676f 74652073  me or --zygote s
 1f28 7570706c 6965642e 00455252 4f523a20  upplied..ERROR: 
 1f38 636f756c 64206e6f 74206669 6e642063  could not find c
 1f48 6c617373 20272573 270a0028 6e756d43  lass '%s'..(numC
 1f58 68617273 203e3d20 50415448 5f4d4158  hars >= PATH_MAX
 1f68 207c7c20 6e756d43 68617273 203c2030   || numChars < 0
 1f78 2900636f 6d2e616e 64726f69 642e696e  ).com.android.in
 1f88 7465726e 616c2e6f 732e5275 6e74696d  ternal.os.Runtim
 1f98 65496e69 74004572 726f7220 6368616e  eInit.Error chan
 1fa8 67696e67 2064616c 76696b2d 63616368  ging dalvik-cach
 1fb8 65207065 726d6973 73696f6e 73203a20  e permissions : 
 1fc8 25730025 732f6461 6c76696b 2d636163  %s.%s/dalvik-cac
 1fd8 68652f61 726d3634 00457272 6f722063  he/arm64.Error c
 1fe8 68616e67 696e6720 64616c76 696b2d63  hanging dalvik-c
 1ff8 61636865 206f776e 65727368 6970203a  ache ownership :
 2008 20257300 55736167 653a2061 70705f70   %s.Usage: app_p
 2018 726f6365 7373205b 6a617661 2d6f7074  rocess [java-opt
 2028 696f6e73 5d20636d 642d6469 72207374  ions] cmd-dir st
 2038 6172742d 636c6173 732d6e61 6d65205b  art-class-name [
 2048 6f707469 6f6e735d 0a007369 67616374  options]..sigact
 2058 696f6e00 7a79676f 74653634 00726f2e  ion.zygote64.ro.
 2068 70726f64 7563742e 6370752e 6162696c  product.cpu.abil
 2078 69737436 34000517 0f171717 00171700  ist64...........
 2088 24019c01 9c019c01 9c019c01 9c019c01  $...............
 2098 9c019c01 9c019c01 9c019c01 9c019c01  ................
 20a8 9c019c01 9c019c01 9c019c01 9c019c01  ................
 20b8 9c019c01 9c019c01 9c019c01 9c019c01  ................
 20c8 9c019c01 9c019c01 9c019c01 9c019c01  ................
 20d8 9c019c01 9c019c01 9c019c01 9c019c01  ................
 20e8 9c019c01 9c010000 9c019c01 9c019c01  ................
 20f8 9c019c01 9c019c01 9c019c01 28010100  ............(...
 2108 9c019c01 9c019c01 01009c01 9c019c01  ................
 2118 9c019c01 01003101 9c019c01 1b019c01  ......1.........
 2128 00009c01 9c010000 00000a00 85011400  ................
 2138 85018501 85011e00                    ........
Contents of section .eh_frame_hdr:
 2140 011b033b 34010000 25000000 c80e0000  ...;4...%.......
 2150 50010000 080f0000 70010000 3c160000  P.......p...<...
 2160 a0010000 5c160000 b8010000 90160000  ....\...........
 2170 d8010000 f8160000 f8010000 68170000  ............h...
 2180 18020000 04180000 40020000 a4180000  ........@.......
 2190 60020000 14190000 80020000 4c190000  `...........L...
 21a0 a0020000 ec190000 c0020000 281a0000  ............(...
 21b0 e0020000 601a0000 00030000 981a0000  ....`...........
 21c0 20030000 e41a0000 40030000 2c1b0000   .......@...,...
 21d0 60030000 501b0000 80030000 e4240000  `...P........$..
 21e0 b0030000 28270000 d8030000 44280000  ....('......D(..
 21f0 08040000 f8290000 38040000 a02a0000  .....)..8....*..
 2200 58040000 142b0000 78040000 382f0000  X....+..x...8/..
 2210 a8040000 90300000 d0040000 d4310000  .....0.......1..
 2220 f8040000 2c330000 20050000 d4330000  ....,3.. ....3..
 2230 48050000 04350000 70050000 ac350000  H....5..p....5..
 2240 98050000 04370000 c0050000 fc370000  .....7.......7..
 2250 e0050000 34390000 08060000 44390000  ....49......D9..
 2260 20060000 84390000 40060000 0c3b0000   ....9..@....;..
 2270 60060000                             `...
Contents of section .eh_frame:
 2278 14000000 00000000 017a5200 017c1e01  .........zR..|..
 2288 1b0c1f00 00000000 1c000000 1c000000  ................
 2298 700d0000 40000000 004c0c1d 109e029d  p...@....L......
 22a8 04000000 00000000 2c000000 3c000000  ........,...<...
 22b8 900d0000 34070000 00640c1d 60930294  ....4....d..`...
 22c8 04950696 08970a98 0c990e9a 109b129c  ................
 22d8 149e169d 18000000 14000000 6c000000  ............l...
 22e8 94140000 20000000 00000000 00000000  .... ...........
 22f8 1c000000 84000000 9c140000 34000000  ............4...
 2308 004c0c1d 2093049e 069d0800 00000000  .L.. ...........
 2318 1c000000 a4000000 b0140000 68000000  ............h...
 2328 00500c1d 30930294 0495089e 0a9d0c00  .P..0...........
 2338 1c000000 c4000000 f8140000 70000000  ............p...
 2348 00500c1d 30930294 0495089e 0a9d0c00  .P..0...........
 2358 24000000 e4000000 48150000 9c000000  $.......H.......
 2368 00500c1d 30930294 04950696 089e0a9d  .P..0...........
 2378 0c000000 00000000 1c000000 0c010000  ................
 2388 bc150000 a0000000 00500c1d 20930294  .........P.. ...
 2398 049e069d 08000000 1c000000 2c010000  ............,...
 23a8 3c160000 70000000 00500c1d 2093049e  <...p....P.. ...
 23b8 069d0800 00000000 1c000000 4c010000  ............L...
 23c8 8c160000 38000000 00480c1d 109e029d  ....8....H......
 23d8 04000000 00000000 1c000000 6c010000  ............l...
 23e8 a4160000 a0000000 00500c1d 2093029c  .........P.. ...
 23f8 049e069d 08000000 1c000000 8c010000  ................
 2408 24170000 3c000000 004c0c1d 2093049e  $...<....L.. ...
 2418 069d0800 00000000 1c000000 ac010000  ................
 2428 40170000 38000000 004c0c1d 20930294  @...8....L.. ...
 2438 049e069d 08000000 1c000000 cc010000  ................
 2448 58170000 38000000 004c0c1d 20930294  X...8....L.. ...
 2458 049e069d 08000000 1c000000 ec010000  ................
 2468 70170000 4c000000 00500c1d 30930294  p...L....P..0...
 2478 0495089e 0a9d0c00 1c000000 0c020000  ................
 2488 9c170000 48000000 00500c1d 30930294  ....H....P..0...
 2498 0495089e 0a9d0c00 1c000000 2c020000  ............,...
 24a8 c4170000 24000000 00480c1d 109e029d  ....$....H......
 24b8 04000000 00000000 2c000000 4c020000  ........,...L...
 24c8 c8170000 94090000 00600c1d 60930294  .........`..`...
 24d8 04950696 08970a98 0c990e9a 109b129c  ................
 24e8 149e169d 18000000 24000000 7c020000  ........$...|...
 24f8 2c210000 44020000 00580c1d 40930294  ,!..D....X..@...
 2508 04950696 08970c9e 0e9d1000 00000000  ................
 2518 2c000000 a4020000 48230000 1c010000  ,.......H#......
 2528 00600c1d 60930294 04950696 08970a98  .`..`...........
 2538 0c990e9a 109c149e 169d1800 00000000  ................
 2548 2c000000 d4020000 34240000 b4010000  ,.......4$......
 2558 00600c1d 60930294 04950696 08970a98  .`..`...........
 2568 0c990e9a 109b129c 149e169d 18000000  ................
 2578 1c000000 04030000 b8250000 a8000000  .........%......
 2588 00500c1d 2093029c 049e069d 08000000  .P.. ...........
 2598 1c000000 24030000 40260000 74000000  ....$...@&..t...
 25a8 00500c1d 2093049e 069d0800 00000000  .P.. ...........
 25b8 2c000000 44030000 94260000 24040000  ,...D....&..$...
 25c8 00600c1d 60930294 04950696 08970a98  .`..`...........
 25d8 0c990e9a 109b129c 149e169d 18000000  ................
 25e8 24000000 74030000 882a0000 58010000  $...t....*..X...
 25f8 00580c1d 40930294 04950696 08970a98  .X..@...........
 2608 0c9e0e9d 10000000 24000000 9c030000  ........$.......
 2618 b82b0000 44010000 00580c1d 40930294  .+..D....X..@...
 2628 04950696 08970c9e 0e9d1000 00000000  ................
 2638 24000000 c4030000 d42c0000 58010000  $........,..X...
 2648 00540c1d 30930294 04950696 089e0a9d  .T..0...........
 2658 0c000000 00000000 24000000 ec030000  ........$.......
 2668 042e0000 a8000000 00580c1d 40930294  .........X..@...
 2678 04950696 08970c9e 0e9d1000 00000000  ................
 2688 24000000 14040000 842e0000 30010000  $...........0...
 2698 00580c1d 40930294 04950696 08970a98  .X..@...........
 26a8 0c9e0e9d 10000000 24000000 3c040000  ........$...<...
 26b8 8c2f0000 a8000000 00580c1d 40930294  ./.......X..@...
 26c8 04950696 08970c9e 0e9d1000 00000000  ................
 26d8 24000000 64040000 0c300000 58010000  $...d....0..X...
 26e8 00580c1d 40930294 04950696 08970c9e  .X..@...........
 26f8 0e9d1000 00000000 1c000000 8c040000  ................
 2708 3c310000 f8000000 00540c1d 30930294  <1.......T..0...
 2718 0495089e 0a9d0c00 24000000 ac040000  ........$.......
 2728 14320000 38010000 00540c1d 30930294  .2..8....T..0...
 2738 04950696 089e0a9d 0c000000 00000000  ................
 2748 14000000 d4040000 24330000 10000000  ........$3......
 2758 00000000 00000000 1c000000 ec040000  ................
 2768 1c330000 40000000 00480c1d 109e029d  .3..@....H......
 2778 04000000 00000000 1c000000 0c050000  ................
 2788 3c330000 88010000 004c0c1d 2093049e  <3.......L.. ...
 2798 069d0800 00000000 24000000 2c050000  ........$...,...
 27a8 a4340000 ec000000 00500c1d 30930294  .4.......P..0...
 27b8 04950696 089e0a9d 0c000000 00000000  ................
 27c8 00000000                             ....
Contents of section .text:
 3000 e0030091 01000014 ffc300d1 fd7b02a9  .............{..
 3010 fd830091 28000090 29000090 2a000090  ....(...)...*...
 3020 08010091 29410091 4aa10091 e8a700a9  ....)A..J.......
 3030 ea0f00f9 22000090 42a441f9 e3230091  ...."...B.A..#..
 3040 e1031faa 470b0094 fd7bbaa9 fc6f01a9  ....G....{...o..
 3050 fa6702a9 f85f03a9 f65704a9 f44f05a9  .g..._...W...O..
 3060 fd030091 ff0740d1 ff4304d1 5bd03bd5  ......@..C..[.;.
 3070 681740f9 00e4006f 13040051 f90301aa  h.@....o...Q....
 3080 a8031ff8 e00307ad e00306ad e00305ad  ................
 3090 e00304ad 37d873f8 360040f9 f403002a  ....7.s.6.@....*
 30a0 f5030291 01008092 e00317aa b8420191  .............B..
 30b0 300b0094 080016cb 0801178b 02050091  0...............
 30c0 e0030291 e10316aa 2e0b0094 28000090  ............(...
 30d0 08e10091 bc220191 08410091 e0031caa  ....."...A......
 30e0 e84300f9 2b0b0094 01018052 e00318aa  .C..+......R....
 30f0 e2031f2a f80f00f9 2a0b0094 38000090  ...*....*...8...
 3100 18e30191 f5031f2a 9f0a0071 08430091  .......*...q.C..
 3110 3a230091 e86b00f9 ff7f00f9 f90b00f9  :#...k..........
 3120 fb1300f9 4b060054 f6ffffd0 f7ffffd0  ....K..T........
 3130 fb031f2a f5031faa f903132a d6e23791  ...*.......*..7.
 3140 f75a3b91 0a000014 e00314aa 190b0094  .Z;.............
 3150 e10300aa e0030291 e2031faa 190b0094  ................
 3160 b5060091 bf0219eb 60030054 547b75f8  ........`..TT{u.
 3170 9b020037 e00314aa e10316aa 150b0094  ...7............
 3180 f803002a e00314aa e10317aa 110b0094  ...*............
 3190 88024039 1f000071 041b407a 7b179f1a  ..@9...q..@z{...
 31a0 1fb50071 e1010054 88064039 1fb50071  ...q...T..@9...q
 31b0 c1fcff54 880a4039 88fcff35 08000014  ...T..@9...5....
 31c0 e00314aa fb0a0094 e10300aa fb031f2a  ...............*
 31d0 e1ffff17 f503132a 02000014 b5060011  .......*........
 31e0 fb1340f9 38000090 18e30191 e0e30191  ..@.8...........
 31f0 ff3f00f9 e70a0094 e0c30191 ff3b00f9  .?...........;..
 3200 e40a0094 b9060011 3f03136b 6a070054  ........?..kj..T
 3210 e80b40f9 f6ffffd0 f8ffffd0 fc0700f9  ..@.............
 3220 08cd398b fb031f2a f7031f2a 3c7f4093  ..9....*...*<.@.
 3230 d6a22c91 18d33191 15210091 ff2f00b9  ..,...1..!.../..
 3240 0b000014 e1fffff0 e0e30191 21700191  ............!p..
 3250 e40a0094 37008052 9c070091 39070011  ....7..R....9...
 3260 7f021c6b b5220091 20050054 b40240f9  ...k.".. ..T..@.
 3270 e10316aa e00314aa d60a0094 40feff34  ............@..4
 3280 e00314aa e10318aa d20a0094 00020034  ...............4
 3290 e1ffffd0 e00314aa 21f42c91 cd0a0094  ........!.,.....
 32a0 60020034 e1ffffd0 82018052 e00314aa  `..4.......R....
 32b0 21c43391 cf0a0094 801b0035 81320091  !.3........5.2..
 32c0 e0e30191 c70a0094 e4ffff17 e1ffffd0  ................
 32d0 e2ffffd0 80008052 21e03b91 42dc3491  .......R!.;.B.4.
 32e0 c80a0094 3b008052 dcffff17 28008052  ....;..R....(..R
 32f0 e82f00b9 d9ffff17 f5031baa f7031f2a  ./.............*
 3300 fb031f2a f4031f2a 07000014 f903132a  ...*...*.......*
 3310 f51340f9 fc0740f9 f42f40b9 38000090  ..@...@../@.8...
 3320 18e30191 00e4006f e0030191 01018052  .......o.......R
 3330 e2031f2a ff3300f9 e00302ad 990a0094  ...*.3..........
 3340 08430091 e0c30191 e82300f9 b10a0094  .C.......#......
 3350 c00400b4 e8ffffd0 e9ffffd0 08c52c91  ..............,.
 3360 298d3891 9f020072 2101889a e0030491  ).8....r!.......
 3370 ac0a0094 e0030191 e1030491 ad0a0094  ................
 3380 e0030491 af0a0094 e1c30191 e0031caa  ................
 3390 7602194b af0a0094 df060071 fb0315aa  v..K.......q....
 33a0 cb0c0054 e8030291 f3031faa 55cf398b  ...T........U.9.
 33b0 14410191 f603162a a18640f8 e0030491  .A.....*..@.....
 33c0 980a0094 e1030491 e00314aa 990a0094  ................
 33d0 e0030491 9b0a0094 73060091 7f0216eb  ........s.......
 33e0 c1feff54 55000014 e0ffffd0 00c83691  ...TU.........6.
 33f0 9c0a0094 001500b4 f40300aa e0030491  ................
 3400 02008252 e1031f2a 9a0a0094 e0030491  ...R...*........
 3410 e40314aa 9e010094 1f044071 a2140054  ..........@q...T
 3420 e0030491 21398052 960a0094 a000f836  ....!9.R.......6
 3430 980a0094 000040b9 1f440071 c1180054  ......@..D.q...T
 3440 e0030491 e1031f2a e2031f2a 950a0094  .......*...*....
 3450 6014f837 e0030491 21398052 950a0094  `..7....!9.R....
 3460 4015f837 5b010036 e1ffffd0 21843b91  @..7[..6....!.;.
 3470 e0030491 6b0a0094 e0030191 e1030491  ....k...........
 3480 6c0a0094 e0030491 6e0a0094 e0fffff0  l.......n.......
 3490 00e4006f e8370191 00940191 e1030491  ...o.7..........
 34a0 e2031faa 00f18f3c e08309ad e08308ad  .......<........
 34b0 e043803d 830a0094 e0130034 e1ffffd0  .C.=.......4....
 34c0 21f83391 e0e30091 ff1f00f9 550a0094  !.3.........U...
 34d0 e0e30091 e1030491 7e0a0094 e0030191  ........~.......
 34e0 e1e30091 530a0094 7f02196b fb0315aa  ....S......k....
 34f0 0d020054 e80b40f9 347f4093 08cd398b  ...T..@.4.@...9.
 3500 15210091 a18640f8 e0c30091 450a0094  .!....@.....E...
 3510 e0030191 e1c30091 460a0094 e0c30091  ........F.......
 3520 480a0094 94060091 7f02146b c1feff54  H..........k...T
 3530 e0e30091 430a0094 e0e30191 350a0094  ....C.......5...
 3540 a00000b4 e13f40f9 e0030291 22008052  .....?@....."..R
 3550 640a0094 37010037 e83b40f9 e80700b4  d...7..7.;@.....
 3560 e1ffffd0 21e83d91 e0030291 e2030191  ....!.=.........
 3570 e3031f2a 06000014 e1ffffd0 21742f91  ...*........!t/.
 3580 e0030291 e2030191 23008052 590a0094  ........#..RY...
 3590 13430091 e0030191 f32300f9 590a0094  .C.......#..Y...
 35a0 e0030191 5b0a0094 e0c30191 250a0094  ....[.......%...
 35b0 e0e30191 230a0094 f36b00f9 f30f40f9  ....#....k....@.
 35c0 28000090 08e10091 08410091 e00313aa  (........A......
 35d0 e84300f9 4b0a0094 e00313aa 4d0a0094  .C..K.......M...
 35e0 e0031caa 170a0094 e0030291 4d0a0094  ............M...
 35f0 681740f9 a9035ff8 1f0109eb c1020054  h.@..._........T
 3600 e0031f2a ff074091 ff430491 f44f45a9  ...*..@..C...OE.
 3610 f65744a9 f85f43a9 fa6742a9 fc6f41a9  .WD.._C..gB..oA.
 3620 fd7bc6a8 c0035fd6 e1ffffd0 21d43b91  .{...._.....!.;.
 3630 42008052 e00314aa ee090094 a0e6ff34  B..R...........4
 3640 e0c30191 e10314aa 39070011 e5090094  ........9.......
 3650 30ffff17 370a0094 28000090 08a941f9  0...7...(.....A.
 3660 e0ffffd0 00c42e91 61058052 030140f9  ........a..R..@.
 3670 22008052 330a0094 41000094 e1ffffd0  "..R3...A.......
 3680 e2ffffd0 21e03b91 42003c91 e0031faa  ....!.;.B.<.....
 3690 300a0094 e0ffffd0 e1ffffd0 e2ffffd0  0...............
 36a0 00c43991 21e03b91 42143a91 290a0094  ..9.!.;.B.:.)...
 36b0 f8090094 000040b9 2a0a0094 e30300aa  ......@.*.......
 36c0 e0ffffd0 e1ffffd0 e2ffffd0 004c3d91  .............L=.
 36d0 21e03b91 42f03791 1e0a0094 ed090094  !.;.B.7.........
 36e0 000040b9 1f0a0094 e30300aa e0ffffd0  ..@.............
 36f0 e1ffffd0 e2ffffd0 00403191 21e03b91  .........@1.!.;.
 3700 42843f91 130a0094 e2090094 000040b9  B.?...........@.
 3710 140a0094 e30300aa e0ffffd0 e1ffffd0  ................
 3720 e2ffffd0 00403191 21e03b91 42783e91  .....@1.!.;.Bx>.
 3730 080a0094 e1ffffd0 e2ffffd0 e3fffff0  ................
 3740 21e03b91 42d42d91 63940191 e0031faa  !.;.B.-.c.......
 3750 000a0094 030a0094 e40300aa e0ffffd0  ................
 3760 e1ffffd0 e2ffffd0 00143391 21e03b91  ..........3.!.;.
 3770 42a03891 e3030491 f6090094 28000090  B.8.........(...
 3780 08a941f9 e0fffff0 00300091 a1088052  ..A......0.....R
 3790 030140f9 22008052 ea090014 fd7bbea9  ..@."..R.....{..
 37a0 f30b00f9 fd030091 28000090 08e10191  ........(.......
 37b0 08410091 f30300aa 080000f9 d1090094  .A..............
 37c0 e00313aa f30b40f9 fd7bc2a8 d1090014  ......@..{......
 37d0 fd7bbda9 f50b00f9 f44f02a9 fd030091  .{.......O......
 37e0 28000090 29000090 08e10091 29e10191  (...).......)...
 37f0 f40300aa f50300aa 08410091 29410091  .........A..)A..
 3800 888604f8 a90e05f8 f30300aa e00315aa  ................
 3810 bc090094 e00315aa be090094 e00314aa  ................
 3820 88090094 e00313aa f44f42a9 f50b40f9  .........OB...@.
 3830 fd7bc3a8 bb090014 fd7bbda9 f50b00f9  .{.......{......
 3840 f44f02a9 fd030091 28000090 29000090  .O......(...)...
 3850 08e10091 29e10191 f40300aa f50300aa  ....)...........
 3860 08410091 29410091 888604f8 a90e05f8  .A..)A..........
 3870 f30300aa e00315aa a2090094 e00315aa  ................
 3880 a4090094 e00314aa 6e090094 e00313aa  ........n.......
 3890 a4090094 e00313aa f44f42a9 f50b40f9  .........OB...@.
 38a0 fd7bc3a8 b3090014 fd7bbda9 f65701a9  .{.......{...W..
 38b0 f44f02a9 fd030091 15200191 f30300aa  .O....... ......
 38c0 e00315aa f40301aa 52090094 400300b4  ........R...@...
 38d0 602640f9 ab090094 880240f9 f60300aa  `&@.......@.....
 38e0 e00314aa e10316aa 081940f9 00013fd6  ..........@...?.
 38f0 603e00f9 000100b5 a30240f9 e1ffffd0  `>........@.....
 3900 e2ffffd0 21e03b91 42c43c91 c0008052  ....!.;.B.<....R
 3910 3c090094 e00316aa 9e090094 880240f9  <.............@.
 3920 613e40f9 e00314aa 085540f9 00013fd6  a>@......U@...?.
 3930 603e00f9 f44f42a9 f65741a9 fd7bc3a8  `>...OB..WA..{..
 3940 c0035fd6 ffc300d1 fd7b01a9 f44f02a9  .._......{...O..
 3950 fd430091 54d03bd5 881640f9 f30300aa  .C..T.;...@.....
 3960 e80700f9 e8030091 ff0300f9 8d090094  ................
 3970 e00340f9 8f090094 92090094 623e40f9  ..@.........b>@.
 3980 61220191 63420191 92090094 95090094  a"..cB..........
 3990 21008052 97090094 9a090094 21008052  !..R........!..R
 39a0 9c090094 e80340f9 c80000b4 090140f9  ......@.......@.
 39b0 e1030091 29815ef8 0001098b 99090094  ....).^.........
 39c0 881640f9 e90740f9 1f0109eb a1000054  ..@...@........T
 39d0 f44f42a9 fd7b41a9 ffc30091 c0035fd6  .OB..{A......._.
 39e0 54090094 ffc300d1 fd7b01a9 f31300f9  T........{......
 39f0 fd430091 53d03bd5 681640f9 e80700f9  .C..S.;.h.@.....
 3a00 e8030091 ff0300f9 66090094 e00340f9  ........f.....@.
 3a10 68090094 e80340f9 c80000b4 090140f9  h.....@.......@.
 3a20 e1030091 29815ef8 0001098b 7d090094  ....).^.....}...
 3a30 681640f9 e90740f9 1f0109eb a1000054  h.@...@........T
 3a40 f31340f9 fd7b41a9 ffc30091 c0035fd6  ..@..{A......._.
 3a50 38090094 fd7bbfa9 fd030091 00200191  8....{....... ..
 3a60 ec080094 600000b4 fd7bc1a8 c0035fd6  ....`....{...._.
 3a70 5c090094 21008052 5e090094 61090094  \...!..R^...a...
 3a80 21008052 fd7bc1a8 62090014 ff4304d1  !..R.{..b....C..
 3a90 fd7b0fa9 fc4f10a9 fdc30391 a41739a9  .{...O........9.
 3aa0 a61f3aa9 e00700ad e20f01ad e41702ad  ..:.............
 3ab0 e61f03ad 53d03bd5 681640f9 aac301d1  ....S.;.h.@.....
 3ac0 eb030091 00e4006f a8831ff8 e8038092  .......o........
 3ad0 a9830091 08f0dff2 4a810091 6b010291  ........J...k...
 3ae0 a0833ead a92b3da9 ab233ea9 a0877ead  ..>..+=..#>...~.
 3af0 e2ffffd0 422c3f91 a34301d1 01008252  ....B,?..C.....R
 3b00 a0873dad 4b090094 681640f9 a9835ff8  ..=.K...h.@..._.
 3b10 1f0109eb a1000054 fc4f50a9 fd7b4fa9  .......T.OP..{O.
 3b20 ff430491 c0035fd6 02090094 fd7bbea9  .C...._......{..
 3b30 f30b00f9 fd030091 28000090 08e10191  ........(.......
 3b40 08410091 f30300aa 080000f9 ed080094  .A..............
 3b50 e00313aa ef080094 e00313aa f30b40f9  ..............@.
 3b60 fd7bc2a8 03090014 fd7bbea9 f44f01a9  .{.......{...O..
 3b70 fd030091 020100b4 f30302aa e00301aa  ................
 3b80 730600d1 14200091 82080094 e00314aa  s.... ..........
 3b90 93ffffb5 f44f41a9 fd7bc2a8 c0035fd6  .....OA..{...._.
 3ba0 fd7bbea9 f44f01a9 fd030091 020100b4  .{...O..........
 3bb0 f30302aa f40301aa e00314aa 730600d1  ............s...
 3bc0 a0080094 94220091 93ffffb5 f44f41a9  .....".......OA.
 3bd0 fd7bc2a8 c0035fd6 fd7bbda9 f50b00f9  .{...._..{......
 3be0 f44f02a9 fd030091 630100b4 f30303aa  .O......c.......
 3bf0 f40302aa f50301aa e00315aa e10314aa  ................
 3c00 730600d1 0f090094 b5220091 94220091  s........"..."..
 3c10 53ffffb5 f44f42a9 f50b40f9 fd7bc3a8  S....OB...@..{..
 3c20 c0035fd6 fd7bbda9 f50b00f9 f44f02a9  .._..{.......O..
 3c30 fd030091 430100b4 f30303aa f40302aa  ....C...........
 3c40 f50301aa e00315aa e10314aa 730600d1  ............s...
 3c50 fc080094 b5220091 73ffffb5 f44f42a9  ....."..s....OB.
 3c60 f50b40f9 fd7bc3a8 c0035fd6 fd7bbfa9  ..@..{...._..{..
 3c70 fd030091 e80302aa e00301aa 62f07dd3  ............b.}.
 3c80 e10308aa f3080094 fd7bc1a8 c0035fd6  .........{...._.
 3c90 ffc303d1 fd7b09a9 fc6f0aa9 fa670ba9  .....{...o...g..
 3ca0 f85f0ca9 f6570da9 f44f0ea9 fd430291  ._...W...O...C..
 3cb0 49d03bd5 e90b04a9 a8c300d1 291540f9  I.;.........).@.
 3cc0 0a0140b2 ea1700f9 147d0091 0a017fb2  ..@......}......
 3cd0 0b0540b2 e80328aa f30300aa f9031f2a  ..@...(........*
 3ce0 3b0400d1 00e4006f 1c018052 eba300a9  ;......o...R....
 3cf0 e8032aaa e8ab01a9 a9831ff8 a1031cf8  ..*.............
 3d00 297f4093 e0031faa e803192a 2a00098b  ).@........**...
 3d10 a0833ead 58696038 d8000034 1f970071  ..>.Xi`8...4...q
 3d20 80000054 00040091 58696038 98ffff35  ...T....Xi`8...5
 3d30 1501008b 3f01156b aa030054 3600098b  ....?..k...T6...
 3d40 8000f836 01008092 e00316aa 09080094  ...6............
 3d50 6a0240f9 690a40f9 087c4093 4a01088b  j.@.i.@..|@.J...
 3d60 3f0500f1 6a0200f9 09020054 2a050051  ?...j......T*..Q
 3d70 600640f9 3f0108eb 08818a1a 177d4093  `.@.?........}@.
 3d80 e10316aa e20317aa b6080094 680640f9  ............h.@.
 3d90 0901178b 690600f9 1f693738 680a40f9  ....i....i78h.@.
 3da0 080117cb 680a00f9 e803152a ee2740f9  ....h......*.'@.
 3db0 10068052 58400034 f7031f2a f5031f2a  ...RX@.4...*...*
 3dc0 fa031f2a 19050011 69c3398b eb031a2a  ...*....i.9....*
 3dd0 281d4038 fa030b2a 39070011 2b008052  (.@8...*9...+..R
 3de0 0ac10071 60ffff54 1fa90071 ac000054  ...q`..T...q...T
 3df0 683c0034 1f810071 00010054 09000014  h<.4...q...T....
 3e00 1fad0071 a0000054 1fb50071 a1000054  ...q...T...q...T
 3e10 35008052 edffff17 f703082a ebffff17  5..R.......*....
 3e20 5f250071 fb1f00f9 a8000054 5f250071  _%.q.......T_%.q
 3e30 09010054 fb031f2a 0d000014 1b008012  ...T...*........
 3e40 1fb90071 00020054 18008012 21000014  ...q...T....!...
 3e50 fb031f2a 4b018052 281d4038 7b2b0b1b  ...*K..R(.@8{+..
 3e60 0ac10051 5f290071 83ffff54 a8035cf8  ...Q_).q...T..\.
 3e70 290108cb 08c96938 39050011 1fb90071  ).....i89......q
 3e80 41feff54 a8035cf8 08c1398b 09014039  A..T..\...9...@9
 3e90 29c10051 3f250071 69000054 f8031f2a  )..Q?%.qi..T...*
 3ea0 08000014 f8031f2a 4b018052 0a1d4038  .......*K..R..@8
 3eb0 18270b1b 49c10051 3f290071 83ffff54  .'..I..Q?).q...T
 3ec0 aa035cf8 09010acb 48c96938 39050011  ..\.....H.i89...
 3ed0 09a10151 2a058913 5f250071 89008052  ...Q*..._%.q...R
 3ee0 c8030054 edfffff0 adf90191 8b000010  ...T............
 3ef0 ac696a38 6b090c8b 60011fd6 a8035cf8  .ij8k...`.....\.
 3f00 29070011 08c97938 f903092a 12000014  ).....y8...*....
 3f10 ab035cf8 287f4093 69696838 3fa10171  ..\.(.@.iih8?..q
 3f20 0a15889a 68696a38 29008052 2905899a  ....hij8)..R)...
 3f30 59050011 09000014 aa035cf8 287f4093  Y.........\.(.@.
 3f40 49696838 3fb10171 0915889a 48696938  Iih8?..q....Hii8
 3f50 39050011 09018052 0a950051 5f4d0171  9......R...Q_M.q
 3f60 88340054 edfffff0 ad210291 ab000010  .4.T.....!......
 3f70 ac796a78 6b090c8b 2a008052 60011fd6  .yjxk...*..R`...
 3f80 ea031f2a 2b0500d1 7f1d00f1 88310054  ...*+........1.T
 3f90 effffff0 efc10491 8c000010 ed796b78  .............ykx
 3fa0 8c090d8b 80011fd6 cb1980b9 cb04f836  ...............6
 3fb0 6c210011 7f210031 cc1900b9 4c040054  l!...!.1....L..T
 3fc0 cc0540f9 8b010b8b 6b014039 31000014  ..@.....k.@91...
 3fd0 cb1980b9 2b04f836 6c210011 7f210031  ....+..6l!...!.1
 3fe0 cc1900b9 ac030054 cc0540f9 8b010b8b  .......T..@.....
 3ff0 6b014079 27000014 cb1980b9 8b03f836  k.@y'..........6
 4000 6c210011 7f210031 cc1900b9 0c030054  l!...!.1.......T
 4010 cc0540f9 8b010b8b 6b0140b9 1d000014  ..@.....k.@.....
 4020 cb1980b9 eb02f836 6c210011 7f210031  .......6l!...!.1
 4030 cc1900b9 6c020054 cc0540f9 8b010b8b  ....l..T..@.....
 4040 13000014 cb0140f9 6c210091 cc0100f9  ......@.l!......
 4050 6b014039 0f000014 cb0140f9 6c210091  k.@9......@.l!..
 4060 cc0100f9 6b014079 0a000014 cb0140f9  ....k.@y......@.
 4070 6c210091 cc0100f9 6b0140b9 05000014  l!......k.@.....
 4080 cb0140f9 6c210091 cc0100f9 6b0140f9  ..@.l!......k.@.
 4090 29711d53 e903094b 6c21c99a 5f010071  )q.S...Kl!.._..q
 40a0 0a910151 8929c99a 29118b9a 5f2d0071  ...Q.)..)..._-.q
 40b0 88020054 2b008052 6a21ca1a 2b048152  ...T+..Rj!..+..R
 40c0 5f010b6a e0010054 0a011b32 5fe10171  _..j...T...2_..q
 40d0 eb179f1a 1fbd0171 ec179f1a 6900f8b7  .......q....i...
 40e0 ea0a8052 0f000014 a8058052 a8031d38  ...R.......R...8
 40f0 e81740f9 e90309cb ea0a8052 0c000014  ..@........R....
 4100 0a011b32 5fe10171 eb179f1a 1f610171  ...2_..q.....a.q
 4110 e80a8052 ea068052 ec031f2a 4a01881a  ...R...R...*J...
 4120 a8c300d1 adc300d1 090300b4 9f010071  ...............q
 4130 4c018052 8c138c9a 7f010071 0b028052  L..R.......q...R
 4140 6b118c9a ec0308aa 05000014 3f010beb  k...........?...
 4150 e9030eaa ec030daa 83010054 9f0114eb  ...........T....
 4160 2e09cb9a ed0314aa 20ffff54 cda50b1b  ........ ..T....
 4170 bf290071 0f328a1a ed010d0b 8d150038  .).q.2.........8
 4180 ed030caa f2ffff17 bf0108eb a1000054  ...............T
 4190 bf0114eb 60000054 ed0308aa b0150038  ....`..T.......8
 41a0 e90328aa a90109ab bf010039 40010054  ..(........9@..T
 41b0 ea031faa 0b696938 0c696a38 0b692a38  .....ii8.ij8.i*8
 41c0 0c692938 4a050091 290500d1 5f0109eb  .i)8J...)..._...
 41d0 23ffff54 b6c300d1 01008092 e00316aa  #..T............
 41e0 e4060094 ff1e0072 01210054 1f070031  .......r.!.T...1
 41f0 c1200054 f70300aa 18018052 f53700b9  . .T.......R.7..
 4200 55010035 7503176b 0d010054 5f030071  U..5u..k...T_..q
 4210 e8c704b2 e9c303b2 2801889a bf060071  ........(......q
 4220 a8831cf8 0a060054 e003172a 9700f836  .......T...*...6
 4230 01008092 e00316aa ce060094 6a0240f9  ............j.@.
 4240 680a40f9 097c4093 4a01098b 1f0900f1  h.@..|@.J.......
 4250 6a0200f9 23020054 0a050051 600640f9  j...#..T...Q`.@.
 4260 1f0109eb 28818a1a 187d4093 e10316aa  ....(....}@.....
 4270 e20318aa 7b070094 680640f9 0901188b  ....{...h.@.....
 4280 690600f9 1f693838 680a40f9 080118cb  i....i88h.@.....
 4290 18018052 680a00f9 e93740b9 00e4006f  ...Rh....7@....o
 42a0 49010034 7703176b 0d010054 5f030071  I..4w..k...T_..q
 42b0 e9c704b2 eac303b2 4901899a ff060071  ........I......q
 42c0 a9831cf8 4a050054 a1035cf8 fb1f40f9  ....J..T..\...@.
 42d0 1c018052 8bfeff17 b5021c4b bf020071  ...R.......K...q
 42e0 4dfaff54 bf220071 bcb2981a e0031c2a  M..T.".q.......*
 42f0 9c00f836 a0e300d1 01018052 9d060094  ...6.......R....
 4300 6a0240f9 690a40f9 087c4093 4a01088b  j.@.i.@..|@.J...
 4310 3f0900f1 6a0200f9 03feff54 2a050051  ?...j......T*..Q
 4320 600640f9 3f0108eb 08818a1a 187d4093  `.@.?........}@.
 4330 a1e300d1 e20318aa 4a070094 680640f9  ........J...h.@.
 4340 0901188b 690600f9 1f693838 680a40f9  ....i....i88h.@.
 4350 080118cb 18018052 680a00f9 dfffff17  .......Rh.......
 4360 f702154b ff020071 0dfbff54 ff220071  ...K...q...T.".q
 4370 f5b2981a e003152a d500f836 a0e300d1  .......*...6....
 4380 01018052 7b060094 680a40f9 00e4006f  ...R{...h.@....o
 4390 6a0240f9 097c4093 1f0900f1 4a01098b  j.@..|@.....J...
 43a0 6a0200f9 e3fdff54 0a050051 600640f9  j......T...Q`.@.
 43b0 1f0109eb 28818a1a 167d4093 a1e300d1  ....(....}@.....
 43c0 e20316aa 27070094 680640f9 00e4006f  ....'...h.@....o
 43d0 0901168b 690600f9 1f693638 680a40f9  ....i....i68h.@.
 43e0 080116cb 680a00f9 deffff17 c81980b9  ....h...........
 43f0 c803f836 09210011 1f210031 c91900b9  ...6.!...!.1....
 4400 4c030054 c90540f9 2801088b 1a000014  L..T..@.(.......
 4410 b6c300d1 a8048052 a8031d78 6fffff17  .......R...xo...
 4420 c81980b9 4803f836 09210011 1f210031  ....H..6.!...!.1
 4430 c91900b9 cc020054 c90540f9 2801088b  .......T..@.(...
 4440 16000014 c81980b9 2803f836 09210011  ........(..6.!..
 4450 1f210031 c91900b9 ac020054 c90540f9  .!.1.......T..@.
 4460 2801088b 15000014 c80140f9 09210091  (.........@..!..
 4470 c90100f9 080140f9 e9ffffb0 29a93991  ......@.....).9.
 4480 1f0100f1 3601889a 54ffff17 c80140f9  ....6...T.....@.
 4490 09210091 c90100f9 080140b9 b6c300d1  .!........@.....
 44a0 bf131d38 a8031d38 4cffff17 c80140f9  ...8...8L.....@.
 44b0 09210091 c90100f9 ee1340f9 090140f9  .!........@...@.
 44c0 08068f52 ed0a8052 a8031d78 e8030eaa  ...R...R...x....
 44d0 490200b4 ea030eaa 05000014 3f3d00f1  I...........?=..
 44e0 e9030baa ea0308aa 89010054 5f0114eb  ...........T_...
 44f0 2bfd44d3 e80314aa 20ffff54 280d0012  +.D..... ..T(...
 4500 1f290071 0c328d1a 8801080b 48150038  .).q.2......H..8
 4510 e8030aaa f2ffff17 1f010eeb a1000054  ...............T
 4520 1f0114eb 60000054 e80740f9 b0231d38  ....`..T..@..#.8
 4530 e90f40f9 1f010039 1f0109ab c0e4ff54  ..@....9.......T
 4540 e90b40f9 2901088b 48008052 b6c300d1  ..@.)...H..R....
 4550 ca6a6938 cb6a6838 0c0500d1 2d0d00d1  .ji8.jh8....-...
 4560 ca6a2838 cb6a2938 290500d1 9f010deb  .j(8.j)8).......
 4570 08050091 c3feff54 18ffff17 680240f9  .......T....h.@.
 4580 690a40f9 08050091 3f0900f1 680200f9  i.@.....?...h...
 4590 63010054 680640f9 a9048052 09010039  c..Th.@....R...9
 45a0 680640f9 09050091 690600f9 1f050039  h.@.....i......9
 45b0 680a40f9 080500d1 680a00f9 e82340f9  h.@.....h....#@.
 45c0 081540f9 a9835ff8 1f0109eb a1020054  ..@..._........T
 45d0 f44f4ea9 f6574da9 f85f4ca9 fa674ba9  .ON..WM.._L..gK.
 45e0 fc6f4aa9 fd7b49a9 ffc30391 c0035fd6  .oJ..{I......._.
 45f0 e0ffffb0 e2ffffb0 007c3591 42243991  .........|5.B$9.
 4600 41308052 9b060094 e0ffffb0 e2ffffb0  A0.R............
 4610 007c3591 42003091 61318052 95060094  .|5.B.0.a1.R....
 4620 44060094 ffc303d1 fd7b0ba9 f76300f9  D........{...c..
 4630 f6570da9 f44f0ea9 fdc30291 57d03bd5  .W...O......W.;.
 4640 e81640f9 f30302aa f50301aa f603002a  ..@............*
 4650 a8831ff8 e02f00b9 41008152 20008052  ...../..A..R ..R
 4660 0101a072 e2031f2a 86060094 1f040031  ...r...*.......1
 4670 c1000054 07060094 080040b9 1f110071  ...T......@....q
 4680 c0feff54 51000014 e9c30091 e1ffffb0  ...TQ...........
 4690 f403002a 00e4006f 28008052 20017fb2  ...*...o(..R ...
 46a0 21743191 820d8052 830d8052 e0e3883c  !t1....R...R...<
 46b0 e08303ad e08302ad e08301ad e8630079  .............c.y
 46c0 74060094 e1c30091 c20d8052 e003142a  t..........R...*
 46d0 74060094 1f040031 c1000054 ed050094  t......1...T....
 46e0 080040b9 1f110071 e0feff54 34000014  ..@....q...T4...
 46f0 60060035 df1e0071 e9179f1a e8a30091  `..5...q........
 4700 36008052 29751e53 e9a30039 e85b03a9  6..R)u.S...9.[..
 4710 68060094 e04b0079 e8930091 49008052  h....K.y....I..R
 4720 e1430091 e0031f2a e82704a9 ff7f01a9  .C.....*.'......
 4730 64060094 e007c03d e8230091 09018052  d......=.#.....R
 4740 eab30091 0028a10e 01008092 e00315aa  .....(..........
 4750 e82705a9 ea5b06a9 e00700fd f53b00f9  .'...[.......;..
 4760 84050094 08040091 01008092 e00313aa  ................
 4770 e8cf07a9 7f050094 08040091 e84700f9  .............G..
 4780 e1c30091 c2008052 e003142a 51060094  .......R...*Q...
 4790 f30300aa 1f0400b1 a1000054 bd050094  ...........T....
 47a0 080040b9 1f110071 c0feff54 20078052  ..@....q...T ..R
 47b0 e103142a 4b060094 20000014 20078052  ...*K... ... ..R
 47c0 e103142a 47060094 01008092 e00315aa  ...*G...........
 47d0 f51b00f9 67050094 e8ffffb0 085d3791  ....g........]7.
 47e0 49008052 e0a303a9 01008092 e00313aa  I..R............
 47f0 e9cf04a9 5f050094 e8ffffb0 08853891  ...._.........8.
 4800 29008052 e0a305a9 e93700f9 e1c30091  )..R.....7......
 4810 40008052 82008052 2e060094 f30300aa  @..R...R........
 4820 1f0400b1 a1000054 9a050094 080040b9  .......T......@.
 4830 1f110071 c0feff54 e81640f9 a9835ff8  ...q...T..@..._.
 4840 1f0109eb 01010054 e003132a f44f4ea9  .......T...*.ON.
 4850 f6574da9 f76340f9 fd7b4ba9 ffc30391  .WM..c@..{K.....
 4860 c0035fd6 b3050094 fd7bbaa9 fc0b00f9  .._......{......
 4870 fa6702a9 f85f03a9 f65704a9 f44f05a9  .g..._...W...O..
 4880 fd030091 ffc314d1 e39308a9 e59b09a9  ................
 4890 e75700f9 e18b00ad e39301ad e003803d  .W.............=
 48a0 e59b02ad e71f803d 57d03bd5 e81640f9  .......=W.;...@.
 48b0 ea230291 eb030091 00e4006f a8831ff8  .#.........o....
 48c0 e8048092 a9830191 08f0dff2 4aa10091  ............J...
 48d0 6b010291 e08306ad e92b0da9 eb230ea9  k........+...#..
 48e0 e08746ad f50302aa f30301aa f403002a  ..F............*
 48f0 e08705ad 67050094 180040b9 f60300aa  ....g.....@.....
 4900 e0a30491 02808052 e1031f2a 19808052  .......R...*...R
 4910 faa30491 57050094 e08745ad e0430491  ....W.....E..C..
 4920 e2c30391 e10315aa ff6b11a9 f99300f9  .........k......
 4930 ffa30439 e08707ad d6fcff97 e2a30491  ...9............
 4940 e003142a e10313aa 37ffff97 d80200b9  ...*....7.......
 4950 e81640f9 a9835ff8 1f0109eb 21010054  ..@..._.....!..T
 4960 ffc31491 f44f45a9 f65744a9 f85f43a9  .....OE..WD.._C.
 4970 fa6742a9 fc0b40f9 fd7bc6a8 c0035fd6  .gB...@..{...._.
 4980 6c050094 fd7bbaa9 fc6f01a9 fa6702a9  l....{...o...g..
 4990 f85f03a9 f65704a9 f44f05a9 fd030091  ._...W...O......
 49a0 ff8311d1 57d03bd5 e81640f9 f40302aa  ....W.;...@.....
 49b0 f30301aa f50300aa e0630191 02808052  .........c.....R
 49c0 e1031f2a a8831ff8 16808052 f8630191  ...*.......R.c..
 49d0 28050094 ff6302a9 f61b00f9 ff630139  (....c.......c.9
 49e0 350500b4 01008092 e00315aa e1040094  5...............
 49f0 8000f836 01008092 e00315aa dd040094  ...6............
 4a00 1ffc0f71 e87f8052 1630881a 1a7c4093  ...q...R.0...|@.
 4a10 e0630191 03808052 e10315aa e20316aa  .c.....R........
 4a20 19808052 fb630191 b2050094 7503168b  ...R.c......u...
 4a30 390316cb 480b0091 dffa0f71 bf020039  9...H......q...9
 4a40 f5e702a9 e81300f9 e8010054 28070051  ...........T(..Q
 4a50 3f0b00f1 087d4093 49008052 1601899a  ?....}@.I..R....
 4a60 e1ffffb0 215c3791 e00315aa e20316aa  ....!\7.........
 4a70 7c050094 a802168b 290316cb bf6a3638  |.......)....j68
 4a80 e8a702a9 810240ad e0830091 e2030091  ......@.........
 4a90 e10313aa e10300ad 7efcff97 e0630191  ........~....c..
 4aa0 01808052 f81f00f9 b2040094 e8ffffb0  ...R............
 4ab0 08853891 29008052 e02304a9 e92b00f9  ..8.)..R.#...+..
 4ac0 e1e30091 40008052 42008052 81050094  ....@..RB..R....
 4ad0 1f0400b1 a1000054 ee040094 080040b9  .......T......@.
 4ae0 1f110071 e0feff54 e1ffffb0 21bc3191  ...q...T....!.1.
 4af0 e2630191 e0008052 cbfeff97 e0630191  .c.....R.....c..
 4b00 80050094 e81640f9 a9835ff8 1f0109eb  ......@..._.....
 4b10 21010054 ff831191 f44f45a9 f65744a9  !..T.....OE..WD.
 4b20 f85f43a9 fa6742a9 fc6f41a9 fd7bc6a8  ._C..gB..oA..{..
 4b30 c0035fd6 ff040094 ffc304d1 fd7b11a9  .._..........{..
 4b40 fc4f12a9 fd430491 e18b08a9 e39309a9  .O...C..........
 4b50 e59b0aa9 e75f00f9 e00700ad e20f01ad  ....._..........
 4b60 e41702ad e61f03ad 53d03bd5 6c1640f9  ........S.;.l.@.
 4b70 ea230291 eb030091 ed068092 00e4006f  .#.............o
 4b80 a9830091 0df0dff2 4ae10091 6b010291  ........J...k...
 4b90 ac831ff8 a0833ead a92b3da9 ab373ea9  ......>..+=..7>.
 4ba0 a0877ead e80300aa a24301d1 e0031faa  ..~......C......
 4bb0 e10308aa a0873dad 73ffff97 681640f9  ......=.s...h.@.
 4bc0 a9835ff8 1f0109eb a1000054 fc4f52a9  .._........T.OR.
 4bd0 fd7b51a9 ffc30491 c0035fd6 d5040094  .{Q......._.....
 4be0 ff0301d1 fd7b02a9 f31b00f9 fd830091  .....{..........
 4bf0 53d03bd5 681640f9 290000b0 29c13191  S.;.h.@.)...).1.
 4c00 20210091 a8831ff8 08fcdfc8 1f0500b1   !..............
 4c10 00010054 020000b0 e8030091 e9430091  ...T.........C..
 4c20 42102b91 e1230091 e9a300a9 39050094  B.+..#......9...
 4c30 681640f9 a9835ff8 1f0109eb a1000054  h.@..._........T
 4c40 f31b40f9 fd7b42a9 ff030191 c0035fd6  ..@..{B......._.
 4c50 b8040094 ff4302d1 fd7b03a9 fc6f04a9  .....C...{...o..
 4c60 fa6705a9 f85f06a9 f65707a9 f44f08a9  .g..._...W...O..
 4c70 fdc30091 59d03bd5 281740f9 3a0000b0  ....Y.;.(.@.:...
 4c80 5ac33191 f40302aa a8831ff8 48c30091  Z.1.........H...
 4c90 09fddfc8 f50301aa f303002a 3f0500b1  ...........*?...
 4ca0 40010054 020000b0 e9630091 aa4300d1  @..T.....c...C..
 4cb0 42102a91 e1430091 e00308aa a9031ff8  B.*..C..........
 4cc0 ea0b00f9 13050094 400740b9 15050094  ........@.@.....
 4cd0 38000090 18031791 400800b4 080b8052  8.......@......R
 4ce0 7b62289b 7c0b40b9 a04300d1 bf031ff8  {b(.|.@..C......
 4cf0 96a20091 77630091 0e050094 f8031faa  ....wc..........
 4d00 07000014 a04300d1 e103182a 0d050094  .....C.....*....
 4d10 18070091 1f0301f1 80010054 e00316aa  ...........T....
 4d20 e103182a 0b050094 1f040071 c0feff54  ...*.......q...T
 4d30 e00317aa e103182a 06050094 1f040071  .......*.......q
 4d40 20feff54 f3ffff17 9c00f037 a04300d1   ..T.......7.C..
 4d50 e103132a fb040094 480f40f9 a14300d1  ...*....H.@..C..
 4d60 40008052 e2031faa 00013fd6 9c011037  @..R......?....7
 4d70 680b40f9 1f0500f1 c0010054 481700b4  h.@........TH...
 4d80 e003132a 00013fd6 281740f9 a9835ff8  ...*..?.(.@..._.
 4d90 1f0109eb 60010054 9c000014 680b40f9  ....`..T....h.@.
 4da0 e003132a e10315aa e20314aa 00013fd6  ...*..........?.
 4db0 281740f9 a9835ff8 1f0109eb 61120054  (.@..._.....a..T
 4dc0 f44f48a9 f65747a9 f85f46a9 fa6745a9  .OH..WG.._F..gE.
 4dd0 fc6f44a9 fd7b43a9 ff430291 c0035fd6  .oD..{C..C...._.
 4de0 080b8052 7b62289b 681740f9 88f7ffb4  ...R{b(.h.@.....
 4df0 480b40f9 7c1f40f9 61c30091 e2630091  H.@.|.@.a....c..
 4e00 40008052 ff0f00f9 00013fd6 40c30091  @..R......?.@...
 4e10 08fcdfc8 1f0500b1 20010054 020000b0  ........ ..T....
 4e20 e8230091 a94300d1 42102a91 e1430091  .#...C..B.*..C..
 4e30 a8031ff8 e90b00f9 b6040094 400740b9  ............@.@.
 4e40 b8040094 1f0000f1 f70300aa f6079f1a  ................
 4e50 1c020037 40c30091 08fcdfc8 1f0500b1  ...7@...........
 4e60 20010054 020000b0 e8230091 a94300d1   ..T.....#...C..
 4e70 42102a91 e1430091 a8031ff8 e90b00f9  B.*..C..........
 4e80 a4040094 400740b9 21008052 b5040094  ....@.@.!..R....
 4e90 681740f9 e003132a e10315aa e20314aa  h.@....*........
 4ea0 00013fd6 c0080037 480b40f9 e1630091  ..?....7H.@..c..
 4eb0 40008052 e2031faa 00013fd6 40c30091  @..R......?.@...
 4ec0 08fcdfc8 1f0500b1 20010054 020000b0  ........ ..T....
 4ed0 e8230091 a94300d1 42102a91 e1430091  .#...C..B.*..C..
 4ee0 a8031ff8 e90b00f9 8a040094 400740b9  ............@.@.
 4ef0 ff0200f1 e1079f1a 9a040094 682340f9  ............h#@.
 4f00 e8eeffb4 480b40f9 7c2b40f9 61230191  ....H.@.|+@.a#..
 4f10 e2630091 40008052 ff0f00f9 00013fd6  .c..@..R......?.
 4f20 40c30091 08fcdfc8 1f0500b1 20010054  @........... ..T
 4f30 020000b0 e8230091 a94300d1 42102a91  .....#...C..B.*.
 4f40 e1430091 a8031ff8 e90b00f9 71040094  .C..........q...
 4f50 400740b9 73040094 1f0000f1 f70300aa  @.@.s...........
 4f60 f6079f1a 1c020037 40c30091 08fcdfc8  .......7@.......
 4f70 1f0500b1 20010054 020000b0 e8230091  .... ..T.....#..
 4f80 a94300d1 42102a91 e1430091 a8031ff8  .C..B.*..C......
 4f90 e90b00f9 5f040094 400740b9 21008052  ...._...@.@.!..R
 4fa0 70040094 682340f9 e003132a e10315aa  p...h#@....*....
 4fb0 e20314aa 00013fd6 a0020036 40c30091  ......?....6@...
 4fc0 08fcdfc8 1f0500b1 20010054 020000b0  ........ ..T....
 4fd0 e8230091 a94300d1 42102a91 e1430091  .#...C..B.*..C..
 4fe0 a8031ff8 e90b00f9 4a040094 400740b9  ........J...@.@.
 4ff0 e10316aa 5b040094 281740f9 a9835ff8  ....[...(.@..._.
 5000 1f0109eb e0edff54 ca030094 480b40f9  .......T....H.@.
 5010 e1630091 40008052 e2031faa 00013fd6  .c..@..R......?.
 5020 40c30091 08fcdfc8 1f0500b1 20010054  @........... ..T
 5030 02000090 e8230091 a94300d1 42102a91  .....#...C..B.*.
 5040 e1430091 a8031ff8 e90b00f9 31040094  .C..........1...
 5050 400740b9 ff0200f1 e1079f1a 41040094  @.@.........A...
 5060 1fffff17 e0ffff90 00283491 e103132a  .........(4....*
 5070 b2feff97 3f040094 ffc301d1 fd7b03a9  ....?........{..
 5080 f85f04a9 f65705a9 f44f06a9 fdc30091  ._...W...O......
 5090 56d03bd5 c81640f9 37000090 f7c23191  V.;...@.7.....1.
 50a0 f30302aa a8831ff8 e8220091 09fddfc8  ........."......
 50b0 f40301aa f503002a 3f0500b1 40010054  .......*?...@..T
 50c0 02000090 e9430091 aa4300d1 42102b91  .....C...C..B.+.
 50d0 e1630091 e00308aa a9031ff8 ea0f00f9  .c..............
 50e0 0c040094 e8024039 68000034 e0031f2a  ......@9h..4...*
 50f0 2d000014 a8060051 1f010171 c3000054  -......Q...q...T
 5100 64030094 c8028052 080000b9 00008012  d......R........
 5110 25000014 080b8052 a97ea89b 080000f0  %......R.~......
 5120 08011791 09696938 49030034 e903152a  .....ii8I..4...*
 5130 0a0b8052 38210a9b 170b40b9 151340f9  ...R8!....@...@.
 5140 0007c03d b40100b4 880240b9 00630091  ...=......@..c..
 5150 e003803d 080b00b9 880640f9 080b00f9  ...=......@.....
 5160 880e40f9 081300f9 f2030094 e003c03d  ..@............=
 5170 880a40f9 080f00f9 e0031f2a 530100b4  ..@........*S...
 5180 770200f9 6082803c 750e00f9 06000014  w...`..<u.......
 5190 e81240f9 e003152a e10314aa e20313aa  ..@....*........
 51a0 00013fd6 c81640f9 a9835ff8 1f0109eb  ..?...@..._.....
 51b0 e1000054 f44f46a9 f65745a9 f85f44a9  ...T.OF..WE.._D.
 51c0 fd7b43a9 ffc30191 c0035fd6 59030094  .{C......._.Y...
 51d0 ff0302d1 fd7b04a9 f72b00f9 f65706a9  .....{...+...W..
 51e0 f44f07a9 fd030191 56d03bd5 c81640f9  .O......V.;...@.
 51f0 37000090 f7c23191 f30302aa a8831ff8  7.....1.........
 5200 e8220091 09fddfc8 f40301aa f503002a  .".............*
 5210 3f0500b1 20010054 02000090 e9030091  ?... ..T........
 5220 ea430091 42102b91 e1230091 e00308aa  .C..B.+..#......
 5230 eaa700a9 b7030094 e8024039 88010034  ..........@9...4
 5240 e0031f2a c81640f9 a9835ff8 1f0109eb  ...*..@..._.....
 5250 41020054 f44f47a9 f65746a9 f72b40f9  A..T.OG..WF..+@.
 5260 fd7b44a9 ff030291 c0035fd6 a8060051  .{D......._....Q
 5270 1f010171 43010054 06030094 c8028052  ...qC..T.......R
 5280 080000b9 00008012 c81640f9 a9835ff8  ..........@..._.
 5290 1f0109eb 00feff54 26030094 080b8052  .......T&......R
 52a0 a97ea89b 080000f0 08011791 09696938  .~...........ii8
 52b0 e9010034 e903152a 0a0b8052 28210a9b  ...4...*...R(!..
 52c0 0081c13c 0181c03c e18300ad 940000b4  ...<...<........
 52d0 810240ad 08210091 010100ad 33fbffb4  ..@..!......3...
 52e0 e18340ad 610200ad d6ffff17 e81640f9  ..@.a.........@.
 52f0 e003152a e10314aa e20313aa 00013fd6  ...*..........?.
 5300 c81640f9 a9835ff8 1f0109eb 40faff54  ..@..._.....@..T
 5310 e2ffff17 ffc301d1 fd7b04a9 f65705a9  .........{...W..
 5320 f44f06a9 fd030191 55d03bd5 a81640f9  .O......U.;...@.
 5330 36000090 d6c23191 f30301aa a8831ff8  6.....1.........
 5340 c8220091 09fddfc8 f403002a 3f0500b1  .".........*?...
 5350 20010054 02000090 e9030091 ea430091   ..T.........C..
 5360 42102b91 e1230091 e00308aa eaa700a9  B.+..#..........
 5370 68030094 88060051 1f010171 e3010054  h......Q...q...T
 5380 c4020094 c8028052 080000b9 14008092  .......R........
 5390 a81640f9 a9835ff8 1f0109eb c1040054  ..@..._........T
 53a0 e00314aa f44f46a9 f65745a9 fd7b44a9  .....OF..WE..{D.
 53b0 ffc30191 c0035fd6 e8430091 00e4006f  ......_..C.....o
 53c0 00410091 e08300ad 5a030094 080b8052  .A......Z......R
 53d0 897ea89b 080000f0 08011791 0a696938  .~...........ii8
 53e0 0900a352 f30f00f9 e91300b9 6a020034  ...R........j..4
 53f0 ea03142a 0b0b8052 ec1740f9 1f2003d5  ...*...R..@.. ..
 5400 56210b9b d40a40f9 c0620091 c90a00b9  V!....@..b......
 5410 d30a00f9 cc1200f9 46030094 e81340f9  ........F.....@.
 5420 c80e00f9 a81640f9 a9835ff8 1f0109eb  ......@..._.....
 5430 80fbff54 bf020094 c81240f9 e1430091  ...T......@..C..
 5440 e2430091 e003142a 00013fd6 1f040031  .C.....*..?....1
 5450 e0f9ff54 f40f40f9 a81640f9 a9835ff8  ...T..@...@..._.
 5460 1f0109eb e0f9ff54 f3ffff17 ff8301d1  .......T........
 5470 fd7b02a9 f71b00f9 f65704a9 f44f05a9  .{.......W...O..
 5480 fd830091 56d03bd5 c81640f9 37000090  ....V.;...@.7...
 5490 f7c23191 f30302aa a8831ff8 e8220091  ..1.........."..
 54a0 09fddfc8 f40301aa f503002a 3f0500b1  ...........*?...
 54b0 20010054 02000090 e9030091 ea430091   ..T.........C..
 54c0 42102b91 e1230091 e00308aa eaa700a9  B.+..#..........
 54d0 10030094 e30a40f9 e003152a e10314aa  ......@....*....
 54e0 e20313aa 0c000094 c81640f9 a9835ff8  ..........@..._.
 54f0 1f0109eb e1000054 f44f45a9 f65744a9  .......T.OE..WD.
 5500 f71b40f9 fd7b42a9 ff830191 c0035fd6  ..@..{B......._.
 5510 88020094 ff8301d1 fd7b02a9 f85f03a9  .........{..._..
 5520 f65704a9 f44f05a9 fd830091 57d03bd5  .W...O......W.;.
 5530 e81640f9 38000090 18c33191 f30303aa  ..@.8.....1.....
 5540 a8831ff8 08c30091 09fddfc8 f40302aa  ................
 5550 f60301aa f503002a 3f0500b1 20010054  .......*?... ..T
 5560 02000090 e9030091 ea430091 42102a91  .........C..B.*.
 5570 e1230091 e00308aa eaa700a9 e5020094  .#..............
 5580 000740b9 e7020094 800000b4 e003152a  ..@............*
 5590 e10316aa 1f000014 ff0b00f9 760300b4  ............v...
 55a0 c80240f9 a9021f32 3f090071 e80b00f9  ..@....2?..q....
 55b0 81020054 080000f0 08011791 18610191  ...T.........a..
 55c0 36008052 05000014 d6060091 df0601f1  6..R............
 55d0 18630191 60010054 08034039 68ffff34  .c..`..T..@9h..4
 55e0 e0430091 e103162a da020094 e0feff34  .C.....*.......4
 55f0 e0430091 e103162a e2020094 f3ffff17  .C.....*........
 5600 e1430091 02000014 e1031faa e003152a  .C.............*
 5610 e20314aa 60023fd6 e81640f9 a9835ff8  ....`.?...@..._.
 5620 1f0109eb e1000054 f44f45a9 f65744a9  .......T.OE..WD.
 5630 f85f43a9 fd7b42a9 ff830191 c0035fd6  ._C..{B......._.
 5640 3c020094 ff8301d1 fd7b02a9 f71b00f9  <........{......
 5650 f65704a9 f44f05a9 fd830091 56d03bd5  .W...O......V.;.
 5660 c81640f9 37000090 f7c23191 f30302aa  ..@.7.....1.....
 5670 a8831ff8 e8220091 09fddfc8 f40301aa  ....."..........
 5680 f503002a 3f0500b1 20010054 02000090  ...*?... ..T....
 5690 e9030091 ea430091 42102b91 e1230091  .....C..B.+..#..
 56a0 e00308aa eaa700a9 9a020094 e30e40f9  ..............@.
 56b0 e003152a e10314aa e20313aa 96ffff97  ...*............
 56c0 c81640f9 a9835ff8 1f0109eb e1000054  ..@..._........T
 56d0 f44f45a9 f65744a9 f71b40f9 fd7b42a9  .OE..WD...@..{B.
 56e0 ff830191 c0035fd6 12020094 ff0302d1  ......_.........
 56f0 fd7b04a9 f72b00f9 f65706a9 f44f07a9  .{...+...W...O..
 5700 fd030191 55d03bd5 a81640f9 36000090  ....U.;...@.6...
 5710 d6c23191 f40301aa a8831ff8 c8220091  ..1.........."..
 5720 09fddfc8 f303002a 3f0500b1 20010054  .......*?... ..T
 5730 02000090 e9030091 ea430091 42102b91  .........C..B.+.
 5740 e1230091 e00308aa eaa700a9 71020094  .#..........q...
 5750 68060051 1f010171 22060054 080000f0  h..Q...q"..T....
 5760 08011791 090b8052 7722a99b e90317aa  .......Rw"......
 5770 2a8d42f8 8a0000b4 e90317aa 2a0d44f8  *.B.........*.D.
 5780 aa0500b5 8a0a40f9 8002c03d eb03132a  ......@....=...*
 5790 0c0b8052 2a0900f9 2001803d 1f2003d5  ...R*... ..=. ..
 57a0 74210c9b 88024039 68020035 e8430091  t!....@9h..5.C..
 57b0 00e4006f 00410091 e08300ad 75020094  ...o.A......u...
 57c0 e8fffff0 c91640f9 08513191 e80f00f9  ......@..Q1.....
 57d0 88008052 0800a372 e2220091 e1430091  ...R...r."...C..
 57e0 e003132a e81300b9 20013fd6 28008052  ...*.... .?.(..R
 57f0 88020039 a81640f9 a9835ff8 1f0109eb  ...9..@..._.....
 5800 81010054 f44f47a9 f65746a9 f72b40f9  ...T.OG..WF..+@.
 5810 fd7b44a9 ff030291 c0035fd6 e0ffff90  .{D......._.....
 5820 00683791 e103132a c4fcff97 51020094  .h7....*....Q...
 5830 c0010094 e0ffff90 00443691 bffcff97  .........D6.....
 5840 4c020094 ff4301d1 fd7b02a9 f51b00f9  L....C...{......
 5850 f44f04a9 fd830091 55d03bd5 a81640f9  .O......U.;...@.
 5860 29000090 29c13191 f30301aa a8831ff8  )...).1.........
 5870 28210091 09fddfc8 f403002a 3f0500b1  (!.........*?...
 5880 20010054 02000090 e9030091 ea430091   ..T.........C..
 5890 42102b91 e1230091 e00308aa eaa700a9  B.+..#..........
 58a0 1c020094 88060051 1f010171 c2030054  .......Q...q...T
 58b0 080000f0 08011791 090b8052 8822a99b  ...........R."..
 58c0 e90308aa 2a8d42f8 5f0113eb 00010054  ....*.B._......T
 58d0 092140f9 3f0113eb 20010054 e0ffff90  .!@.?... ..T....
 58e0 00b43a91 95fcff97 22020094 0a2940f9  ..:....."....)@.
 58f0 0011c03d 2a0900f9 2001803d 1f2100f9  ...=*... ..=.!..
 5900 a81640f9 a9835ff8 1f0109eb 61010054  ..@..._.....a..T
 5910 f44f44a9 f51b40f9 fd7b42a9 ff430191  .OD...@..{B..C..
 5920 c0035fd6 e0ffff90 00683791 e103142a  .._......h7....*
 5930 82fcff97 0f020094 7e010094 ff4302d1  ........~....C..
 5940 fd7b06a9 f65707a9 f44f08a9 fd830191  .{...W...O......
 5950 54d03bd5 881640f9 35000090 b5c23191  T.;...@.5.....1.
 5960 f303002a a8831ff8 a8220091 09fddfc8  ...*....."......
 5970 3f0500b1 40010054 02000090 e9230091  ?...@..T.....#..
 5980 eac30091 42102b91 e1430091 e00308aa  ....B.+..C......
 5990 e91b00f9 ea0b00f9 de010094 68060051  ............h..Q
 59a0 1f010171 c2050054 a81640f9 00e4006f  ...q...T..@....o
 59b0 e2430091 e003132a e1031faa e08300ad  .C.....*........
 59c0 00013fd6 e30f40f9 f6fffff0 d6523191  ..?...@......R1.
 59d0 7f0016eb 20030054 e1ffff90 e2ffff90  .... ..T........
 59e0 21283291 42583291 c0008052 9ffbff97  !(2.BX2....R....
 59f0 e8c30091 00e4006f 00410091 e08301ad  .......o.A......
 5a00 e4010094 88008052 0800a372 a91640f9  .......R...r..@.
 5a10 0a0000f0 4a011791 e83300b9 080b8052  ....J....3.....R
 5a20 682aa89b 02210091 e1c30091 e003132a  h*...!.........*
 5a30 f61f00f9 20013fd6 881640f9 a9835ff8  .... .?...@..._.
 5a40 1f0109eb 61010054 f44f48a9 f65747a9  ....a..T.OH..WG.
 5a50 fd7b46a9 ff430291 c0035fd6 e0ffff90  .{F..C...._.....
 5a60 00683791 e103132a 34fcff97 c1010094  .h7....*4.......
 5a70 30010094 08000012 29000090 28c13139  0.......)...(.19
 5a80 c0035fd6 fd7bbfa9 fd030091 28000090  .._..{......(...
 5a90 08c13191 00110091 e1031faa c1010094  ..1.............
 5aa0 60000035 fd7bc1a8 c0035fd6 2d010094  `..5.{...._.-...
 5ab0 e10300aa e0ffff90 002c2d91 1ffcff97  .........,-.....
 5ac0 ac010094 fd7bbea9 f30b00f9 fd030091  .....{..........
 5ad0 33000090 73c23191 60020191 08fcdf08  3...s.1.`.......
 5ae0 28060036 601e40f9 e1ffffb0 21480191  (..6`.@.....!H..
 5af0 b0010094 000100b5 e1ffffb0 21480191  ............!H..
 5b00 ac010094 08000090 08e10191 1f0008eb  ................
 5b10 20080054 01000090 e2ffff90 601200f9   ..T........`...
 5b20 60420091 21b01191 42b03791 48000094  `B..!...B.7.H...
 5b30 60820191 08fcdf08 c8040036 602e40f9  `..........6`.@.
 5b40 e1ffff90 21943391 9a010094 800100b5  ....!.3.........
 5b50 e1ffff90 21943391 96010094 08000090  ....!.3.........
 5b60 08410791 1f0008eb a0040054 08000090  .A.........T....
 5b70 08e10191 1f0008eb 20040054 68620091  ........ ..Thb..
 5b80 601600f9 f30b40f9 01000090 e2ffff90  `.....@.........
 5b90 21101991 426c3091 e00308aa fd7bc2a8  !...Bl0......{..
 5ba0 2b000014 87010094 e0f9ff34 e0ffff90  +..........4....
 5bb0 00243691 21008052 86010094 800300b4  .$6.!..R........
 5bc0 601e00f9 60020191 86010094 c6ffff17  `...`...........
 5bd0 7c010094 40fbff34 e0ffff90 00243691  |...@..4.....$6.
 5be0 21008052 7b010094 200200b4 602e00f9  !..R{... ...`...
 5bf0 60820191 7b010094 d1ffff17 e0ffff90  `...{...........
 5c00 e1ffff90 00a43091 21943391 cbfbff97  ......0.!.3.....
 5c10 58010094 e0ffff90 e1ffffb0 00a43091  X.............0.
 5c20 21480191 c5fbff97 52010094 71010094  !H......R...q...
 5c30 e20300aa e0ffff90 e1ffff90 00fc3691  ..............6.
 5c40 21243691 bdfbff97 4a010094 fd7bbda9  !$6.....J....{..
 5c50 f65701a9 f44f02a9 fd030091 29000090  .W...O......)...
 5c60 29c13191 28410191 0afddf08 f30302aa  ).1.(A..........
 5c70 f50301aa f40300aa 4a020036 202540f9  ........J..6 %@.
 5c80 e10313aa 4b010094 200100b5 e10313aa  ....K... .......
 5c90 48010094 1f0015eb 60030054 08000090  H.......`..T....
 5ca0 08e10191 1f0008eb e0020054 800200f9  ...........T....
 5cb0 f44f42a9 f65741a9 fd7bc3a8 c0035fd6  .OB..WA..{...._.
 5cc0 e00308aa 3f010094 29000090 29c13191  ....?...)...).1.
 5cd0 60fdff34 e0ffff90 00243691 21008052  `..4.....$6.!..R
 5ce0 3c010094 a00100b4 36000090 d6c23191  <.......6.....1.
 5cf0 c02600f9 c0420191 3a010094 e90316aa  .&...B..:.......
 5d00 dfffff17 e0ffff90 00a43091 e10313aa  ..........0.....
 5d10 8afbff97 17010094 36010094 e20300aa  ........6.......
 5d20 e0ffff90 e1ffff90 00fc3691 21243691  ..........6.!$6.
 5d30 82fbff97 0f010094                    ........
Contents of section .plt:
 5d40 f07bbfa9 100000d0 11b641f9 10a20d91  .{........A.....
 5d50 20021fd6 1f2003d5 1f2003d5 1f2003d5   .... ... ... ..
 5d60 100000d0 11ba41f9 10c20d91 20021fd6  ......A..... ...
 5d70 100000d0 11be41f9 10e20d91 20021fd6  ......A..... ...
 5d80 100000d0 11c241f9 10020e91 20021fd6  ......A..... ...
 5d90 100000d0 11c641f9 10220e91 20021fd6  ......A..".. ...
 5da0 100000d0 11ca41f9 10420e91 20021fd6  ......A..B.. ...
 5db0 100000d0 11ce41f9 10620e91 20021fd6  ......A..b.. ...
 5dc0 100000d0 11d241f9 10820e91 20021fd6  ......A..... ...
 5dd0 100000d0 11d641f9 10a20e91 20021fd6  ......A..... ...
 5de0 100000d0 11da41f9 10c20e91 20021fd6  ......A..... ...
 5df0 100000d0 11de41f9 10e20e91 20021fd6  ......A..... ...
 5e00 100000d0 11e241f9 10020f91 20021fd6  ......A..... ...
 5e10 100000d0 11e641f9 10220f91 20021fd6  ......A..".. ...
 5e20 100000d0 11ea41f9 10420f91 20021fd6  ......A..B.. ...
 5e30 100000d0 11ee41f9 10620f91 20021fd6  ......A..b.. ...
 5e40 100000d0 11f241f9 10820f91 20021fd6  ......A..... ...
 5e50 100000d0 11f641f9 10a20f91 20021fd6  ......A..... ...
 5e60 100000d0 11fa41f9 10c20f91 20021fd6  ......A..... ...
 5e70 100000d0 11fe41f9 10e20f91 20021fd6  ......A..... ...
 5e80 100000d0 110242f9 10021091 20021fd6  ......B..... ...
 5e90 100000d0 110642f9 10221091 20021fd6  ......B..".. ...
 5ea0 100000d0 110a42f9 10421091 20021fd6  ......B..B.. ...
 5eb0 100000d0 110e42f9 10621091 20021fd6  ......B..b.. ...
 5ec0 100000d0 111242f9 10821091 20021fd6  ......B..... ...
 5ed0 100000d0 111642f9 10a21091 20021fd6  ......B..... ...
 5ee0 100000d0 111a42f9 10c21091 20021fd6  ......B..... ...
 5ef0 100000d0 111e42f9 10e21091 20021fd6  ......B..... ...
 5f00 100000d0 112242f9 10021191 20021fd6  ....."B..... ...
 5f10 100000d0 112642f9 10221191 20021fd6  .....&B..".. ...
 5f20 100000d0 112a42f9 10421191 20021fd6  .....*B..B.. ...
 5f30 100000d0 112e42f9 10621191 20021fd6  ......B..b.. ...
 5f40 100000d0 113242f9 10821191 20021fd6  .....2B..... ...
 5f50 100000d0 113642f9 10a21191 20021fd6  .....6B..... ...
 5f60 100000d0 113a42f9 10c21191 20021fd6  .....:B..... ...
 5f70 100000d0 113e42f9 10e21191 20021fd6  .....>B..... ...
 5f80 100000d0 114242f9 10021291 20021fd6  .....BB..... ...
 5f90 100000d0 114642f9 10221291 20021fd6  .....FB..".. ...
 5fa0 100000d0 114a42f9 10421291 20021fd6  .....JB..B.. ...
 5fb0 100000d0 114e42f9 10621291 20021fd6  .....NB..b.. ...
 5fc0 100000d0 115242f9 10821291 20021fd6  .....RB..... ...
 5fd0 100000d0 115642f9 10a21291 20021fd6  .....VB..... ...
 5fe0 100000d0 115a42f9 10c21291 20021fd6  .....ZB..... ...
 5ff0 100000d0 115e42f9 10e21291 20021fd6  .....^B..... ...
 6000 100000b0 116242f9 10021391 20021fd6  .....bB..... ...
 6010 100000b0 116642f9 10221391 20021fd6  .....fB..".. ...
 6020 100000b0 116a42f9 10421391 20021fd6  .....jB..B.. ...
 6030 100000b0 116e42f9 10621391 20021fd6  .....nB..b.. ...
 6040 100000b0 117242f9 10821391 20021fd6  .....rB..... ...
 6050 100000b0 117642f9 10a21391 20021fd6  .....vB..... ...
 6060 100000b0 117a42f9 10c21391 20021fd6  .....zB..... ...
 6070 100000b0 117e42f9 10e21391 20021fd6  .....~B..... ...
 6080 100000b0 118242f9 10021491 20021fd6  ......B..... ...
 6090 100000b0 118642f9 10221491 20021fd6  ......B..".. ...
 60a0 100000b0 118a42f9 10421491 20021fd6  ......B..B.. ...
 60b0 100000b0 118e42f9 10621491 20021fd6  ......B..b.. ...
 60c0 100000b0 119242f9 10821491 20021fd6  ......B..... ...
 60d0 100000b0 119642f9 10a21491 20021fd6  ......B..... ...
 60e0 100000b0 119a42f9 10c21491 20021fd6  ......B..... ...
 60f0 100000b0 119e42f9 10e21491 20021fd6  ......B..... ...
 6100 100000b0 11a242f9 10021591 20021fd6  ......B..... ...
 6110 100000b0 11a642f9 10221591 20021fd6  ......B..".. ...
 6120 100000b0 11aa42f9 10421591 20021fd6  ......B..B.. ...
 6130 100000b0 11ae42f9 10621591 20021fd6  ......B..b.. ...
 6140 100000b0 11b242f9 10821591 20021fd6  ......B..... ...
 6150 100000b0 11b642f9 10a21591 20021fd6  ......B..... ...
 6160 100000b0 11ba42f9 10c21591 20021fd6  ......B..... ...
 6170 100000b0 11be42f9 10e21591 20021fd6  ......B..... ...
 6180 100000b0 11c242f9 10021691 20021fd6  ......B..... ...
 6190 100000b0 11c642f9 10221691 20021fd6  ......B..".. ...
 61a0 100000b0 11ca42f9 10421691 20021fd6  ......B..B.. ...
 61b0 100000b0 11ce42f9 10621691 20021fd6  ......B..b.. ...
 61c0 100000b0 11d242f9 10821691 20021fd6  ......B..... ...
 61d0 100000b0 11d642f9 10a21691 20021fd6  ......B..... ...
 61e0 100000b0 11da42f9 10c21691 20021fd6  ......B..... ...
 61f0 100000b0 11de42f9 10e21691 20021fd6  ......B..... ...
Contents of section .preinit_array:
 7000 ffffffff ffffffff 00000000 00000000  ................
Contents of section .init_array:
 7010 ffffffff ffffffff e04b0000 00000000  .........K......
 7020 00000000 00000000                    ........
Contents of section .fini_array:
 7028 ffffffff ffffffff 00000000 00000000  ................
Contents of section .data.rel.ro:
 7038 00000000 00000000 00000000 00000000  ................
 7048 d0370000 00000000 38380000 00000000  .7......88......
 7058 a8380000 00000000 44390000 00000000  .8......D9......
 7068 e4390000 00000000 543a0000 00000000  .9......T:......
 7078 00000000 00000000 00000000 00000000  ................
 7088 9c370000 00000000 2c3b0000 00000000  .7......,;......
 7098 683b0000 00000000 a03b0000 00000000  h;.......;......
 70a8 d83b0000 00000000 243c0000 00000000  .;......$<......
 70b8 6c3c0000 00000000 6c3c0000 00000000  l<......l<......
Contents of section .dynamic:
 70c8 01000000 00000000 f2060000 00000000  ................
 70d8 01000000 00000000 08070000 00000000  ................
 70e8 01000000 00000000 15070000 00000000  ................
 70f8 01000000 00000000 22070000 00000000  ........".......
 7108 01000000 00000000 c4060000 00000000  ................
 7118 01000000 00000000 31070000 00000000  ........1.......
 7128 01000000 00000000 44070000 00000000  ........D.......
 7138 01000000 00000000 50070000 00000000  ........P.......
 7148 01000000 00000000 5e070000 00000000  ........^.......
 7158 01000000 00000000 d5060000 00000000  ................
 7168 01000000 00000000 68070000 00000000  ........h.......
 7178 01000000 00000000 e9060000 00000000  ................
 7188 1e000000 00000000 08000000 00000000  ................
 7198 fbffff6f 00000000 01000000 00000000  ...o............
 71a8 15000000 00000000 00000000 00000000  ................
 71b8 11000060 00000000 08140000 00000000  ...`............
 71c8 12000060 00000000 12000000 00000000  ...`............
 71d8 09000000 00000000 18000000 00000000  ................
 71e8 00e0ff6f 00000000 20140000 00000000  ...o.... .......
 71f8 01e0ff6f 00000000 18000000 00000000  ...o............
 7208 03e0ff6f 00000000 08000000 00000000  ...o............
 7218 17000000 00000000 38140000 00000000  ........8.......
 7228 02000000 00000000 f0060000 00000000  ................
 7238 03000000 00000000 58730000 00000000  ........Xs......
 7248 14000000 00000000 07000000 00000000  ................
 7258 06000000 00000000 30030000 00000000  ........0.......
 7268 0b000000 00000000 18000000 00000000  ................
 7278 05000000 00000000 940c0000 00000000  ................
 7288 0a000000 00000000 70070000 00000000  ........p.......
 7298 f5feff6f 00000000 480c0000 00000000  ...o....H.......
 72a8 20000000 00000000 00700000 00000000   ........p......
 72b8 21000000 00000000 10000000 00000000  !...............
 72c8 19000000 00000000 10700000 00000000  .........p......
 72d8 1b000000 00000000 18000000 00000000  ................
 72e8 1a000000 00000000 28700000 00000000  ........(p......
 72f8 1c000000 00000000 10000000 00000000  ................
 7308 f0ffff6f 00000000 280b0000 00000000  ...o....(.......
 7318 feffff6f 00000000 d40b0000 00000000  ...o............
 7328 ffffff6f 00000000 03000000 00000000  ...o............
 7338 00000000 00000000 00000000 00000000  ................
Contents of section .got:
 7348 48300000 00000000 00000000 00000000  H0..............
Contents of section .got.plt:
 7358 00000000 00000000 00000000 00000000  ................
 7368 00000000 00000000 405d0000 00000000  ........@]......
 7378 405d0000 00000000 405d0000 00000000  @]......@]......
 7388 405d0000 00000000 405d0000 00000000  @]......@]......
 7398 405d0000 00000000 405d0000 00000000  @]......@]......
 73a8 405d0000 00000000 405d0000 00000000  @]......@]......
 73b8 405d0000 00000000 405d0000 00000000  @]......@]......
 73c8 405d0000 00000000 405d0000 00000000  @]......@]......
 73d8 405d0000 00000000 405d0000 00000000  @]......@]......
 73e8 405d0000 00000000 405d0000 00000000  @]......@]......
 73f8 405d0000 00000000 405d0000 00000000  @]......@]......
 7408 405d0000 00000000 405d0000 00000000  @]......@]......
 7418 405d0000 00000000 405d0000 00000000  @]......@]......
 7428 405d0000 00000000 405d0000 00000000  @]......@]......
 7438 405d0000 00000000 405d0000 00000000  @]......@]......
 7448 405d0000 00000000 405d0000 00000000  @]......@]......
 7458 405d0000 00000000 405d0000 00000000  @]......@]......
 7468 405d0000 00000000 405d0000 00000000  @]......@]......
 7478 405d0000 00000000 405d0000 00000000  @]......@]......
 7488 405d0000 00000000 405d0000 00000000  @]......@]......
 7498 405d0000 00000000 405d0000 00000000  @]......@]......
 74a8 405d0000 00000000 405d0000 00000000  @]......@]......
 74b8 405d0000 00000000 405d0000 00000000  @]......@]......
 74c8 405d0000 00000000 405d0000 00000000  @]......@]......
 74d8 405d0000 00000000 405d0000 00000000  @]......@]......
 74e8 405d0000 00000000 405d0000 00000000  @]......@]......
 74f8 405d0000 00000000 405d0000 00000000  @]......@]......
 7508 405d0000 00000000 405d0000 00000000  @]......@]......
 7518 405d0000 00000000 405d0000 00000000  @]......@]......
 7528 405d0000 00000000 405d0000 00000000  @]......@]......
 7538 405d0000 00000000 405d0000 00000000  @]......@]......
 7548 405d0000 00000000 405d0000 00000000  @]......@]......
 7558 405d0000 00000000 405d0000 00000000  @]......@]......
 7568 405d0000 00000000 405d0000 00000000  @]......@]......
 7578 405d0000 00000000 405d0000 00000000  @]......@]......
 7588 405d0000 00000000 405d0000 00000000  @]......@]......
 7598 405d0000 00000000 405d0000 00000000  @]......@]......
 75a8 405d0000 00000000 405d0000 00000000  @]......@]......
 75b8 405d0000 00000000                    @]......
Contents of section .bss:
<skipping contents of bss section at [85c0, 9cd8)>
Contents of section .shstrtab:
 0000 002e7072 65696e69 745f6172 72617900  ..preinit_array.
 0010 2e696e69 745f6172 72617900 2e66696e  .init_array..fin
 0020 695f6172 72617900 2e746578 74002e67  i_array..text..g
 0030 6f74002e 6e6f7465 2e616e64 726f6964  ot..note.android
 0040 2e696465 6e74002e 676f742e 706c7400  .ident..got.plt.
 0050 2e72656c 612e706c 74002e62 7373002e  .rela.plt..bss..
 0060 64796e73 7472002e 65685f66 72616d65  dynstr..eh_frame
 0070 5f686472 002e676e 752e7665 7273696f  _hdr..gnu.versio
 0080 6e5f7200 2e696e74 65727000 2e646174  n_r..interp..dat
 0090 612e7265 6c2e726f 002e7265 6c722e64  a.rel.ro..relr.d
 00a0 796e002e 72656c61 2e64796e 002e676e  yn..rela.dyn..gn
 00b0 752e7665 7273696f 6e002e64 796e7379  u.version..dynsy
 00c0 6d002e67 6e752e68 61736800 2e65685f  m..gnu.hash..eh_
 00d0 6672616d 65002e6e 6f74652e 676e752e  frame..note.gnu.
 00e0 6275696c 642d6964 002e6479 6e616d69  build-id..dynami
 00f0 63002e73 68737472 74616200 2e746461  c..shstrtab..tda
 0100 7461002e 726f6461 7461002e 676e755f  ta..rodata..gnu_
 0110 64656275 67646174 6100               debugdata.
Contents of section .gnu_debugdata:
 0000 fd377a58 5a000004 e6d6b446 02002101  .7zXZ......F..!.
 0010 16000000 742fe5a3 e0198706 0e5d003f  ....t/.......].?
 0020 91458468 3d89a6da 8ae18622 a2cd8c63  .E.h=......"...c
 0030 1afa7069 f60771a9 f1d46e04 085b1aa1  ..pi..q...n..[..
 0040 688967c9 f7bb3f63 19de5f6d c6070d94  h.g...?c.._m....
 0050 97f9fdec 35522f01 f94abf3e 775d2b81  ....5R/..J.>w]+.
 0060 c3254013 1fd7f8bc aa8bf649 8b72f0fd  .%@........I.r..
 0070 0da4c42a ee5f49b1 f774faab 122a86b7  ...*._I..t...*..
 0080 c6b30e60 d20470cd 2bc7f80e ec787ba8  ...`..p.+....x{.
 0090 86327c21 7d60efd4 d8341db0 a4a9e8cb  .2|!}`...4......
 00a0 1537cd0b a53759fb 68e7ed57 b2099d28  .7...7Y.h..W...(
 00b0 08ea657e 942debe9 d52f1db6 b097a40c  ..e~.-.../......
 00c0 4b9976d2 87378aa6 a511f6d2 6d03e832  K.v..7......m..2
 00d0 200a008e 5d24bbb0 34f15da0 e9b43664   ...]$..4.]...6d
 00e0 22efcd97 65d526a9 23de804e 73eef59d  "...e.&.#..Ns...
 00f0 eaecf21c 481b46b9 0bafe7e1 205bf121  ....H.F..... [.!
 0100 6a537c4e b15396d0 797b8748 3929cab8  jS|N.S..y{.H9)..
 0110 0e9bbf94 c473e7a2 b3e9d1ab 95a461e4  .....s........a.
 0120 119cbfda 8692e668 81405f5a 6c5b2307  .......h.@_Zl[#.
 0130 18880ab4 de85b049 6eabbee5 7d85ad60  .......In...}..`
 0140 a258dd59 6d005479 5420dd5e 9b59c800  .X.Ym.TyT .^.Y..
 0150 81a61f6d ab068c59 89a50dcd 974345ab  ...m...Y.....CE.
 0160 4c2bb9e0 43e06935 321a45f9 41c7f672  L+..C.i52.E.A..r
 0170 4c191a77 5ffc2d95 f2804405 6f797870  L..w_.-...D.oyxp
 0180 effb4aef 690501ef a8ab0640 643938f0  ..J.i......@d98.
 0190 7cd0318d 208efe4c 66abf020 b467066f  |.1. ..Lf.. .g.o
 01a0 4ffca990 1204b019 64315837 dd8aaaba  O.......d1X7....
 01b0 264db73d 6008aa03 63b4ab32 75237d1a  &M.=`...c..2u#}.
 01c0 a5bf547f eeb2acc2 b05175f8 2f230c91  ..T......Qu./#..
 01d0 8a50a116 df555e57 552a2e74 84b187f8  .P...U^WU*.t....
 01e0 1e865087 d9fe697a 98d34f5b 925d93a6  ..P...iz..O[.]..
 01f0 36d75e29 b99c8df8 b8b9c6d1 3bb71d6e  6.^)........;..n
 0200 164142de 7ac120b4 2b07bcf5 65b957b2  .AB.z. .+...e.W.
 0210 d52a3e9d f43764f9 141b9ecf 6b7bbc84  .*>..7d.....k{..
 0220 70649db4 98a96c48 151c46bc 7d7532af  pd....lH..F.}u2.
 0230 350281d4 8b16eb1d f5b76774 e1b0bcc0  5.........gt....
 0240 fc423ad1 416fdcb3 74efae18 6fb368fa  .B:.Ao..t...o.h.
 0250 8b51a26d f22b1022 3b6ea67d 8f53af7d  .Q.m.+.";n.}.S.}
 0260 5e9dc182 97107a3e 2cc01e84 4fccf7c5  ^.....z>,...O...
 0270 b3939bae 0644c1bd d4f326fc 1b88b323  .....D....&....#
 0280 6ab65a55 3fa53f41 ec2dd5cf 3b7339b3  j.ZU?.?A.-..;s9.
 0290 f8911067 abceb10c 3cd467f5 ea743ea3  ...g....<.g..t>.
 02a0 7885046f 057e48c2 33792f2b 3bc1c949  x..o.~H.3y/+;..I
 02b0 806c52ea e00af566 320d6822 e05593cc  .lR....f2.h".U..
 02c0 63574ca1 033c6b5a 864b173f 025b4747  cWL..<kZ.K.?.[GG
 02d0 bdacca25 a5be4038 0ffdf6d2 910dc055  ...%..@8.......U
 02e0 6349f077 b9360cbb be0148b7 a9987c5a  cI.w.6....H...|Z
 02f0 cbcc2e1f 228e356f c78c9295 1e79c026  ....".5o.....y.&
 0300 978838dc 8e037f27 a96e8a1a a8837d9f  ..8....'.n....}.
 0310 64313a77 5ea2df2f 75695b4d 36088903  d1:w^../ui[M6...
 0320 38dbe48b 753e2e27 e4153b97 56ecaa07  8...u>.'..;.V...
 0330 e40e4faa 59c2a16c d981e36e 321dc293  ..O.Y..l...n2...
 0340 88f18c36 da0c013e f83079a6 25770a85  ...6...>.0y.%w..
 0350 de4cbdc0 25e4c83e 3cd660a0 bcc04118  .L..%..><.`...A.
 0360 1b7545d4 3f762dfb 0b3d6c14 6ac4f2ad  .uE.?v-..=l.j...
 0370 8173791a 94fda8f6 00e68613 62d0fd05  .sy.........b...
 0380 9fe3d537 e736db59 e4f07ce5 ca75e6bd  ...7.6.Y..|..u..
 0390 d2846683 8ca74e0f 6d12c01f 57708545  ..f...N.m...Wp.E
 03a0 5543a0d4 152bae22 17f9de83 411ad03e  UC...+."....A..>
 03b0 daaaacf6 c90ea9da 4ac67627 e982a618  ........J.v'....
 03c0 a15d9e1b 6c58941d d246b405 81e5593f  .]..lX...F....Y?
 03d0 e5174c58 e9ac6e65 51811a94 d315150d  ..LX..neQ.......
 03e0 0a93f87b 1ad9ff6a c811c8c3 c0c5a7c9  ...{...j........
 03f0 e5fc2236 54ae85ad f5aa8586 f8841c41  .."6T..........A
 0400 ce58b168 8505904c 1e43c825 b0536814  .X.h...L.C.%.Sh.
 0410 dd004e9d 07f3fd59 e024fad3 89ab885b  ..N....Y.$.....[
 0420 eec9448f ceb98379 31783522 2d4caa38  ..D....y1x5"-L.8
 0430 4dadecad 8666d448 c2237bc5 d9031789  M....f.H.#{.....
 0440 cc178881 5fb48fb4 3ab46930 acbfe12e  ...._...:.i0....
 0450 e927e834 918c0093 a9ffa6ac 1045fdee  .'.4.........E..
 0460 32d22f13 c5ed85d8 25694607 c9e0a878  2./.....%iF....x
 0470 523ab5ac 184bfaa1 61f84738 c397e57f  R:...K..a.G8....
 0480 0edb0fc0 b726c51c 8c06bb0f 91b94a4b  .....&........JK
 0490 14726478 ab8cf5b4 65f27a80 1f38767a  .rdx....e.z..8vz
 04a0 0f6763c4 b356f3c5 8e25ea73 8dfa4370  .gc..V...%.s..Cp
 04b0 cc7e0197 fbe3ea68 25117e10 967fad33  .~.....h%.~....3
 04c0 61a58d0c be815fab 5142edc4 b737fd35  a....._.QB...7.5
 04d0 d6f2c1ce bf0219ca 52c9e599 2aed756d  ........R...*.um
 04e0 335acd97 bee566d8 9834f309 1294a220  3Z....f..4..... 
 04f0 b0622dad c0e9cda7 fe631589 0c321ad7  .b-......c...2..
 0500 32711196 770975c1 09139f3e 067bbb24  2q..w.u....>.{.$
 0510 5412fdb6 7235acea 38a6584b 572e9bf1  T...r5..8.XKW...
 0520 8f39f0cd 3b0765b1 51ce8234 d6f5ad30  .9..;.e.Q..4...0
 0530 572068b2 b49a0a73 be699543 cce59a6f  W h....s.i.C...o
 0540 c281281a 8b447e07 3ba96997 c92607de  ..(..D~.;.i..&..
 0550 7cd24c3e 87597dc9 24704cb1 d6a17edb  |.L>.Y}.$pL...~.
 0560 37f5dd0d 4de18980 73d5258e 69f66197  7...M...s.%.i.a.
 0570 78a387e7 bb9d1fbc 31bd056d cd4e4e82  x.......1..m.NN.
 0580 4359189e aef70d00 0cb6bb97 ca06ff23  CY.............#
 0590 761760af f93c3232 7508ae8b 70813e3b  v.`..<22u...p.>;
 05a0 5ad3e80e 915abffe f6344cab 00428813  Z....Z...4L..B..
 05b0 4f3d3a0e 8972b5fb 5b9b6266 6ba1456a  O=:..r..[.bfk.Ej
 05c0 6983ab18 6a0325c7 485bd7de 6ed36a4b  i...j.%.H[..n.jK
 05d0 fe145eb1 19f8f1b0 f83897da 522116b9  ..^......8..R!..
 05e0 775c13a6 ccdf810b 844dc1cf 15a97c55  w\.......M....|U
 05f0 baba5bbb da7f5b4b a0283aff 9e20602f  ..[...[K.(:.. `/
 0600 b5855ae5 8ff464ef 52ab3ada 60ebdebd  ..Z...d.R.:.`...
 0610 c4ce52cf 3ebe5133 cccb1b84 cdd6d050  ..R.>.Q3.......P
 0620 e0776d7b 312ed46c a72119d2 00000000  .wm{1..l.!......
 0630 46aa27e0 17df8cba 0001aa0c 88330000  F.'..........3..
 0640 49cee2b0 b1c467fb 02000000 0004595a  I.....g.......YZ

Disassembly of section .text:

0000000000003000 <.text>:
    3000: 910003e0     	mov	x0, sp
    3004: 14000001     	b	0x3008 <.text+0x8>
    3008: d100c3ff     	sub	sp, sp, #0x30
    300c: a9027bfd     	stp	x29, x30, [sp, #0x20]
    3010: 910083fd     	add	x29, sp, #0x20
    3014: 90000028     	adrp	x8, 0x7000
    3018: 90000029     	adrp	x9, 0x7000
    301c: 9000002a     	adrp	x10, 0x7000
    3020: 91000108     	add	x8, x8, #0x0
    3024: 91004129     	add	x9, x9, #0x10
    3028: 9100a14a     	add	x10, x10, #0x28
    302c: a900a7e8     	stp	x8, x9, [sp, #0x8]
    3030: f9000fea     	str	x10, [sp, #0x18]
    3034: 90000022     	adrp	x2, 0x7000
    3038: f941a442     	ldr	x2, [x2, #0x348]
    303c: 910023e3     	add	x3, sp, #0x8
    3040: aa1f03e1     	mov	x1, xzr
    3044: 94000b47     	bl	0x5d60 <__libc_init@plt>
    3048: a9ba7bfd     	stp	x29, x30, [sp, #-0x60]!
    304c: a9016ffc     	stp	x28, x27, [sp, #0x10]
    3050: a90267fa     	stp	x26, x25, [sp, #0x20]
    3054: a9035ff8     	stp	x24, x23, [sp, #0x30]
    3058: a90457f6     	stp	x22, x21, [sp, #0x40]
    305c: a9054ff4     	stp	x20, x19, [sp, #0x50]
    3060: 910003fd     	mov	x29, sp
    3064: d14007ff     	sub	sp, sp, #0x1, lsl #12   // =0x1000
    3068: d10443ff     	sub	sp, sp, #0x110
    306c: d53bd05b     	mrs	x27, TPIDR_EL0
    3070: f9401768     	ldr	x8, [x27, #0x28]
    3074: 6f00e400     	movi	v0.2d, #0000000000000000
    3078: 51000413     	sub	w19, w0, #0x1
    307c: aa0103f9     	mov	x25, x1
    3080: f81f03a8     	stur	x8, [x29, #-0x10]
    3084: ad0703e0     	stp	q0, q0, [sp, #0xe0]
    3088: ad0603e0     	stp	q0, q0, [sp, #0xc0]
    308c: ad0503e0     	stp	q0, q0, [sp, #0xa0]
    3090: ad0403e0     	stp	q0, q0, [sp, #0x80]
    3094: f873d837     	ldr	x23, [x1, w19, sxtw #3]
    3098: f9400036     	ldr	x22, [x1]
    309c: 2a0003f4     	mov	w20, w0
    30a0: 910203f5     	add	x21, sp, #0x80
    30a4: 92800001     	mov	x1, #-0x1               // =-1
    30a8: aa1703e0     	mov	x0, x23
    30ac: 910142b8     	add	x24, x21, #0x50
    30b0: 94000b30     	bl	0x5d70 <__strlen_chk@plt>
    30b4: cb160008     	sub	x8, x0, x22
    30b8: 8b170108     	add	x8, x8, x23
    30bc: 91000502     	add	x2, x8, #0x1
    30c0: 910203e0     	add	x0, sp, #0x80
    30c4: aa1603e1     	mov	x1, x22
    30c8: 94000b2e     	bl	0x5d80 <_ZN7android14AndroidRuntimeC2EPcm@plt>
    30cc: 90000028     	adrp	x8, 0x7000
    30d0: 9100e108     	add	x8, x8, #0x38
    30d4: 910122bc     	add	x28, x21, #0x48
    30d8: 91004108     	add	x8, x8, #0x10
    30dc: aa1c03e0     	mov	x0, x28
    30e0: f90043e8     	str	x8, [sp, #0x80]
    30e4: 94000b2b     	bl	0x5d90 <_ZN7android7String8C1Ev@plt>
    30e8: 52800101     	mov	w1, #0x8                // =8
    30ec: aa1803e0     	mov	x0, x24
    30f0: 2a1f03e2     	mov	w2, wzr
    30f4: f9000ff8     	str	x24, [sp, #0x18]
    30f8: 94000b2a     	bl	0x5da0 <_ZN7android10VectorImplC2Emj@plt>
    30fc: 90000038     	adrp	x24, 0x7000
    3100: 9101e318     	add	x24, x24, #0x78
    3104: 2a1f03f5     	mov	w21, wzr
    3108: 71000a9f     	cmp	w20, #0x2
    310c: 91004308     	add	x8, x24, #0x10
    3110: 9100233a     	add	x26, x25, #0x8
    3114: f9006be8     	str	x8, [sp, #0xd0]
    3118: f9007fff     	str	xzr, [sp, #0xf8]
    311c: f9000bf9     	str	x25, [sp, #0x10]
    3120: f90013fb     	str	x27, [sp, #0x20]
    3124: 5400064b     	b.lt	0x31ec <.text+0x1ec>
    3128: d0fffff6     	adrp	x22, 0x1000
    312c: d0fffff7     	adrp	x23, 0x1000
    3130: 2a1f03fb     	mov	w27, wzr
    3134: aa1f03f5     	mov	x21, xzr
    3138: 2a1303f9     	mov	w25, w19
    313c: 9137e2d6     	add	x22, x22, #0xdf8
    3140: 913b5af7     	add	x23, x23, #0xed6
    3144: 1400000a     	b	0x316c <.text+0x16c>
    3148: aa1403e0     	mov	x0, x20
    314c: 94000b19     	bl	0x5db0 <strdup@plt>
    3150: aa0003e1     	mov	x1, x0
    3154: 910203e0     	add	x0, sp, #0x80
    3158: aa1f03e2     	mov	x2, xzr
    315c: 94000b19     	bl	0x5dc0 <_ZN7android14AndroidRuntime9addOptionEPKcPv@plt>
    3160: 910006b5     	add	x21, x21, #0x1
    3164: eb1902bf     	cmp	x21, x25
    3168: 54000360     	b.eq	0x31d4 <.text+0x1d4>
    316c: f8757b54     	ldr	x20, [x26, x21, lsl #3]
    3170: 3700029b     	tbnz	w27, #0x0, 0x31c0 <.text+0x1c0>
    3174: aa1403e0     	mov	x0, x20
    3178: aa1603e1     	mov	x1, x22
    317c: 94000b15     	bl	0x5dd0 <strcmp@plt>
    3180: 2a0003f8     	mov	w24, w0
    3184: aa1403e0     	mov	x0, x20
    3188: aa1703e1     	mov	x1, x23
    318c: 94000b11     	bl	0x5dd0 <strcmp@plt>
    3190: 39400288     	ldrb	w8, [x20]
    3194: 7100001f     	cmp	w0, #0x0
    3198: 7a401b04     	ccmp	w24, #0x0, #0x4, ne
    319c: 1a9f177b     	csinc	w27, w27, wzr, ne
    31a0: 7100b51f     	cmp	w8, #0x2d
    31a4: 540001e1     	b.ne	0x31e0 <.text+0x1e0>
    31a8: 39400688     	ldrb	w8, [x20, #0x1]
    31ac: 7100b51f     	cmp	w8, #0x2d
    31b0: 54fffcc1     	b.ne	0x3148 <.text+0x148>
    31b4: 39400a88     	ldrb	w8, [x20, #0x2]
    31b8: 35fffc88     	cbnz	w8, 0x3148 <.text+0x148>
    31bc: 14000008     	b	0x31dc <.text+0x1dc>
    31c0: aa1403e0     	mov	x0, x20
    31c4: 94000afb     	bl	0x5db0 <strdup@plt>
    31c8: aa0003e1     	mov	x1, x0
    31cc: 2a1f03fb     	mov	w27, wzr
    31d0: 17ffffe1     	b	0x3154 <.text+0x154>
    31d4: 2a1303f5     	mov	w21, w19
    31d8: 14000002     	b	0x31e0 <.text+0x1e0>
    31dc: 110006b5     	add	w21, w21, #0x1
    31e0: f94013fb     	ldr	x27, [sp, #0x20]
    31e4: 90000038     	adrp	x24, 0x7000
    31e8: 9101e318     	add	x24, x24, #0x78
    31ec: 9101e3e0     	add	x0, sp, #0x78
    31f0: f9003fff     	str	xzr, [sp, #0x78]
    31f4: 94000ae7     	bl	0x5d90 <_ZN7android7String8C1Ev@plt>
    31f8: 9101c3e0     	add	x0, sp, #0x70
    31fc: f9003bff     	str	xzr, [sp, #0x70]
    3200: 94000ae4     	bl	0x5d90 <_ZN7android7String8C1Ev@plt>
    3204: 110006b9     	add	w25, w21, #0x1
    3208: 6b13033f     	cmp	w25, w19
    320c: 5400076a     	b.ge	0x32f8 <.text+0x2f8>
    3210: f9400be8     	ldr	x8, [sp, #0x10]
    3214: d0fffff6     	adrp	x22, 0x1000
    3218: d0fffff8     	adrp	x24, 0x1000
    321c: f90007fc     	str	x28, [sp, #0x8]
    3220: 8b39cd08     	add	x8, x8, w25, sxtw #3
    3224: 2a1f03fb     	mov	w27, wzr
    3228: 2a1f03f7     	mov	w23, wzr
    322c: 93407f3c     	sxtw	x28, w25
    3230: 912ca2d6     	add	x22, x22, #0xb28
    3234: 9131d318     	add	x24, x24, #0xc74
    3238: 91002115     	add	x21, x8, #0x8
    323c: b9002fff     	str	wzr, [sp, #0x2c]
    3240: 1400000b     	b	0x326c <.text+0x26c>
    3244: f0ffffe1     	adrp	x1, 0x2000
    3248: 9101e3e0     	add	x0, sp, #0x78
    324c: 91017021     	add	x1, x1, #0x5c
    3250: 94000ae4     	bl	0x5de0 <_ZN7android7String85setToEPKc@plt>
    3254: 52800037     	mov	w23, #0x1               // =1
    3258: 9100079c     	add	x28, x28, #0x1
    325c: 11000739     	add	w25, w25, #0x1
    3260: 6b1c027f     	cmp	w19, w28
    3264: 910022b5     	add	x21, x21, #0x8
    3268: 54000520     	b.eq	0x330c <.text+0x30c>
    326c: f94002b4     	ldr	x20, [x21]
    3270: aa1603e1     	mov	x1, x22
    3274: aa1403e0     	mov	x0, x20
    3278: 94000ad6     	bl	0x5dd0 <strcmp@plt>
    327c: 34fffe40     	cbz	w0, 0x3244 <.text+0x244>
    3280: aa1403e0     	mov	x0, x20
    3284: aa1803e1     	mov	x1, x24
    3288: 94000ad2     	bl	0x5dd0 <strcmp@plt>
    328c: 34000200     	cbz	w0, 0x32cc <.text+0x2cc>
    3290: d0ffffe1     	adrp	x1, 0x1000
    3294: aa1403e0     	mov	x0, x20
    3298: 912cf421     	add	x1, x1, #0xb3d
    329c: 94000acd     	bl	0x5dd0 <strcmp@plt>
    32a0: 34000260     	cbz	w0, 0x32ec <.text+0x2ec>
    32a4: d0ffffe1     	adrp	x1, 0x1000
    32a8: 52800182     	mov	w2, #0xc                // =12
    32ac: aa1403e0     	mov	x0, x20
    32b0: 9133c421     	add	x1, x1, #0xcf1
    32b4: 94000acf     	bl	0x5df0 <strncmp@plt>
    32b8: 35001b80     	cbnz	w0, 0x3628 <.text+0x628>
    32bc: 91003281     	add	x1, x20, #0xc
    32c0: 9101e3e0     	add	x0, sp, #0x78
    32c4: 94000ac7     	bl	0x5de0 <_ZN7android7String85setToEPKc@plt>
    32c8: 17ffffe4     	b	0x3258 <.text+0x258>
    32cc: d0ffffe1     	adrp	x1, 0x1000
    32d0: d0ffffe2     	adrp	x2, 0x1000
    32d4: 52800080     	mov	w0, #0x4                // =4
    32d8: 913be021     	add	x1, x1, #0xef8
    32dc: 9134dc42     	add	x2, x2, #0xd37
    32e0: 94000ac8     	bl	0x5e00 <__android_log_print@plt>
    32e4: 5280003b     	mov	w27, #0x1               // =1
    32e8: 17ffffdc     	b	0x3258 <.text+0x258>
    32ec: 52800028     	mov	w8, #0x1                // =1
    32f0: b9002fe8     	str	w8, [sp, #0x2c]
    32f4: 17ffffd9     	b	0x3258 <.text+0x258>
    32f8: aa1b03f5     	mov	x21, x27
    32fc: 2a1f03f7     	mov	w23, wzr
    3300: 2a1f03fb     	mov	w27, wzr
    3304: 2a1f03f4     	mov	w20, wzr
    3308: 14000007     	b	0x3324 <.text+0x324>
    330c: 2a1303f9     	mov	w25, w19
    3310: f94013f5     	ldr	x21, [sp, #0x20]
    3314: f94007fc     	ldr	x28, [sp, #0x8]
    3318: b9402ff4     	ldr	w20, [sp, #0x2c]
    331c: 90000038     	adrp	x24, 0x7000
    3320: 9101e318     	add	x24, x24, #0x78
    3324: 6f00e400     	movi	v0.2d, #0000000000000000
    3328: 910103e0     	add	x0, sp, #0x40
    332c: 52800101     	mov	w1, #0x8                // =8
    3330: 2a1f03e2     	mov	w2, wzr
    3334: f90033ff     	str	xzr, [sp, #0x60]
    3338: ad0203e0     	stp	q0, q0, [sp, #0x40]
    333c: 94000a99     	bl	0x5da0 <_ZN7android10VectorImplC2Emj@plt>
    3340: 91004308     	add	x8, x24, #0x10
    3344: 9101c3e0     	add	x0, sp, #0x70
    3348: f90023e8     	str	x8, [sp, #0x40]
    334c: 94000ab1     	bl	0x5e10 <_ZNK7android7String86lengthEv@plt>
    3350: b40004c0     	cbz	x0, 0x33e8 <.text+0x3e8>
    3354: d0ffffe8     	adrp	x8, 0x1000
    3358: d0ffffe9     	adrp	x9, 0x1000
    335c: 912cc508     	add	x8, x8, #0xb31
    3360: 91388d29     	add	x9, x9, #0xe23
    3364: 7200029f     	tst	w20, #0x1
    3368: 9a880121     	csel	x1, x9, x8, eq
    336c: 910403e0     	add	x0, sp, #0x100
    3370: 94000aac     	bl	0x5e20 <_ZN7android7String8C1EPKc@plt>
    3374: 910103e0     	add	x0, sp, #0x40
    3378: 910403e1     	add	x1, sp, #0x100
    337c: 94000aad     	bl	0x5e30 <_ZN7android10VectorImpl3addEPKv@plt>
    3380: 910403e0     	add	x0, sp, #0x100
    3384: 94000aaf     	bl	0x5e40 <_ZN7android7String8D1Ev@plt>
    3388: 9101c3e1     	add	x1, sp, #0x70
    338c: aa1c03e0     	mov	x0, x28
    3390: 4b190276     	sub	w22, w19, w25
    3394: 94000aaf     	bl	0x5e50 <_ZN7android7String85setToERKS0_@plt>
    3398: 710006df     	cmp	w22, #0x1
    339c: aa1503fb     	mov	x27, x21
    33a0: 54000ccb     	b.lt	0x3538 <.text+0x538>
    33a4: 910203e8     	add	x8, sp, #0x80
    33a8: aa1f03f3     	mov	x19, xzr
    33ac: 8b39cf55     	add	x21, x26, w25, sxtw #3
    33b0: 91014114     	add	x20, x8, #0x50
    33b4: 2a1603f6     	mov	w22, w22
    33b8: f84086a1     	ldr	x1, [x21], #0x8
    33bc: 910403e0     	add	x0, sp, #0x100
    33c0: 94000a98     	bl	0x5e20 <_ZN7android7String8C1EPKc@plt>
    33c4: 910403e1     	add	x1, sp, #0x100
    33c8: aa1403e0     	mov	x0, x20
    33cc: 94000a99     	bl	0x5e30 <_ZN7android10VectorImpl3addEPKv@plt>
    33d0: 910403e0     	add	x0, sp, #0x100
    33d4: 94000a9b     	bl	0x5e40 <_ZN7android7String8D1Ev@plt>
    33d8: 91000673     	add	x19, x19, #0x1
    33dc: eb16027f     	cmp	x19, x22
    33e0: 54fffec1     	b.ne	0x33b8 <.text+0x3b8>
    33e4: 14000055     	b	0x3538 <.text+0x538>
    33e8: d0ffffe0     	adrp	x0, 0x1000
    33ec: 9136c800     	add	x0, x0, #0xdb2
    33f0: 94000a9c     	bl	0x5e60 <getenv@plt>
    33f4: b4001500     	cbz	x0, 0x3694 <.text+0x694>
    33f8: aa0003f4     	mov	x20, x0
    33fc: 910403e0     	add	x0, sp, #0x100
    3400: 52820002     	mov	w2, #0x1000             // =4096
    3404: 2a1f03e1     	mov	w1, wzr
    3408: 94000a9a     	bl	0x5e70 <memset@plt>
    340c: 910403e0     	add	x0, sp, #0x100
    3410: aa1403e4     	mov	x4, x20
    3414: 9400019e     	bl	0x3a8c <.text+0xa8c>
    3418: 7140041f     	cmp	w0, #0x1, lsl #12       // =0x1000
    341c: 540014a2     	b.hs	0x36b0 <.text+0x6b0>
    3420: 910403e0     	add	x0, sp, #0x100
    3424: 52803921     	mov	w1, #0x1c9              // =457
    3428: 94000a96     	bl	0x5e80 <mkdir@plt>
    342c: 36f800a0     	tbz	w0, #0x1f, 0x3440 <.text+0x440>
    3430: 94000a98     	bl	0x5e90 <__errno@plt>
    3434: b9400000     	ldr	w0, [x0]
    3438: 7100441f     	cmp	w0, #0x11
    343c: 540018c1     	b.ne	0x3754 <.text+0x754>
    3440: 910403e0     	add	x0, sp, #0x100
    3444: 2a1f03e1     	mov	w1, wzr
    3448: 2a1f03e2     	mov	w2, wzr
    344c: 94000a95     	bl	0x5ea0 <chown@plt>
    3450: 37f81460     	tbnz	w0, #0x1f, 0x36dc <.text+0x6dc>
    3454: 910403e0     	add	x0, sp, #0x100
    3458: 52803921     	mov	w1, #0x1c9              // =457
    345c: 94000a95     	bl	0x5eb0 <chmod@plt>
    3460: 37f81540     	tbnz	w0, #0x1f, 0x3708 <.text+0x708>
    3464: 3600015b     	tbz	w27, #0x0, 0x348c <.text+0x48c>
    3468: d0ffffe1     	adrp	x1, 0x1000
    346c: 913b8421     	add	x1, x1, #0xee1
    3470: 910403e0     	add	x0, sp, #0x100
    3474: 94000a6b     	bl	0x5e20 <_ZN7android7String8C1EPKc@plt>
    3478: 910103e0     	add	x0, sp, #0x40
    347c: 910403e1     	add	x1, sp, #0x100
    3480: 94000a6c     	bl	0x5e30 <_ZN7android10VectorImpl3addEPKv@plt>
    3484: 910403e0     	add	x0, sp, #0x100
    3488: 94000a6e     	bl	0x5e40 <_ZN7android7String8D1Ev@plt>
    348c: f0ffffe0     	adrp	x0, 0x2000
    3490: 6f00e400     	movi	v0.2d, #0000000000000000
    3494: 910137e8     	add	x8, sp, #0x4d
    3498: 91019400     	add	x0, x0, #0x65
    349c: 910403e1     	add	x1, sp, #0x100
    34a0: aa1f03e2     	mov	x2, xzr
    34a4: 3c8ff100     	stur	q0, [x8, #0xff]
    34a8: ad0983e0     	stp	q0, q0, [sp, #0x130]
    34ac: ad0883e0     	stp	q0, q0, [sp, #0x110]
    34b0: 3d8043e0     	str	q0, [sp, #0x100]
    34b4: 94000a83     	bl	0x5ec0 <property_get@plt>
    34b8: 340013e0     	cbz	w0, 0x3734 <.text+0x734>
    34bc: d0ffffe1     	adrp	x1, 0x1000
    34c0: 9133f821     	add	x1, x1, #0xcfe
    34c4: 9100e3e0     	add	x0, sp, #0x38
    34c8: f9001fff     	str	xzr, [sp, #0x38]
    34cc: 94000a55     	bl	0x5e20 <_ZN7android7String8C1EPKc@plt>
    34d0: 9100e3e0     	add	x0, sp, #0x38
    34d4: 910403e1     	add	x1, sp, #0x100
    34d8: 94000a7e     	bl	0x5ed0 <_ZN7android7String86appendEPKc@plt>
    34dc: 910103e0     	add	x0, sp, #0x40
    34e0: 9100e3e1     	add	x1, sp, #0x38
    34e4: 94000a53     	bl	0x5e30 <_ZN7android10VectorImpl3addEPKv@plt>
    34e8: 6b19027f     	cmp	w19, w25
    34ec: aa1503fb     	mov	x27, x21
    34f0: 5400020d     	b.le	0x3530 <.text+0x530>
    34f4: f9400be8     	ldr	x8, [sp, #0x10]
    34f8: 93407f34     	sxtw	x20, w25
    34fc: 8b39cd08     	add	x8, x8, w25, sxtw #3
    3500: 91002115     	add	x21, x8, #0x8
    3504: f84086a1     	ldr	x1, [x21], #0x8
    3508: 9100c3e0     	add	x0, sp, #0x30
    350c: 94000a45     	bl	0x5e20 <_ZN7android7String8C1EPKc@plt>
    3510: 910103e0     	add	x0, sp, #0x40
    3514: 9100c3e1     	add	x1, sp, #0x30
    3518: 94000a46     	bl	0x5e30 <_ZN7android10VectorImpl3addEPKv@plt>
    351c: 9100c3e0     	add	x0, sp, #0x30
    3520: 94000a48     	bl	0x5e40 <_ZN7android7String8D1Ev@plt>
    3524: 91000694     	add	x20, x20, #0x1
    3528: 6b14027f     	cmp	w19, w20
    352c: 54fffec1     	b.ne	0x3504 <.text+0x504>
    3530: 9100e3e0     	add	x0, sp, #0x38
    3534: 94000a43     	bl	0x5e40 <_ZN7android7String8D1Ev@plt>
    3538: 9101e3e0     	add	x0, sp, #0x78
    353c: 94000a35     	bl	0x5e10 <_ZNK7android7String86lengthEv@plt>
    3540: b40000a0     	cbz	x0, 0x3554 <.text+0x554>
    3544: f9403fe1     	ldr	x1, [sp, #0x78]
    3548: 910203e0     	add	x0, sp, #0x80
    354c: 52800022     	mov	w2, #0x1                // =1
    3550: 94000a64     	bl	0x5ee0 <_ZN7android14AndroidRuntime8setArgv0EPKcb@plt>
    3554: 37000137     	tbnz	w23, #0x0, 0x3578 <.text+0x578>
    3558: f9403be8     	ldr	x8, [sp, #0x70]
    355c: b40007e8     	cbz	x8, 0x3658 <.text+0x658>
    3560: d0ffffe1     	adrp	x1, 0x1000
    3564: 913de821     	add	x1, x1, #0xf7a
    3568: 910203e0     	add	x0, sp, #0x80
    356c: 910103e2     	add	x2, sp, #0x40
    3570: 2a1f03e3     	mov	w3, wzr
    3574: 14000006     	b	0x358c <.text+0x58c>
    3578: d0ffffe1     	adrp	x1, 0x1000
    357c: 912f7421     	add	x1, x1, #0xbdd
    3580: 910203e0     	add	x0, sp, #0x80
    3584: 910103e2     	add	x2, sp, #0x40
    3588: 52800023     	mov	w3, #0x1                // =1
    358c: 94000a59     	bl	0x5ef0 <_ZN7android14AndroidRuntime5startEPKcRKNS_6VectorINS_7String8EEEb@plt>
    3590: 91004313     	add	x19, x24, #0x10
    3594: 910103e0     	add	x0, sp, #0x40
    3598: f90023f3     	str	x19, [sp, #0x40]
    359c: 94000a59     	bl	0x5f00 <_ZN7android10VectorImpl13finish_vectorEv@plt>
    35a0: 910103e0     	add	x0, sp, #0x40
    35a4: 94000a5b     	bl	0x5f10 <_ZN7android10VectorImplD2Ev@plt>
    35a8: 9101c3e0     	add	x0, sp, #0x70
    35ac: 94000a25     	bl	0x5e40 <_ZN7android7String8D1Ev@plt>
    35b0: 9101e3e0     	add	x0, sp, #0x78
    35b4: 94000a23     	bl	0x5e40 <_ZN7android7String8D1Ev@plt>
    35b8: f9006bf3     	str	x19, [sp, #0xd0]
    35bc: f9400ff3     	ldr	x19, [sp, #0x18]
    35c0: 90000028     	adrp	x8, 0x7000
    35c4: 9100e108     	add	x8, x8, #0x38
    35c8: 91004108     	add	x8, x8, #0x10
    35cc: aa1303e0     	mov	x0, x19
    35d0: f90043e8     	str	x8, [sp, #0x80]
    35d4: 94000a4b     	bl	0x5f00 <_ZN7android10VectorImpl13finish_vectorEv@plt>
    35d8: aa1303e0     	mov	x0, x19
    35dc: 94000a4d     	bl	0x5f10 <_ZN7android10VectorImplD2Ev@plt>
    35e0: aa1c03e0     	mov	x0, x28
    35e4: 94000a17     	bl	0x5e40 <_ZN7android7String8D1Ev@plt>
    35e8: 910203e0     	add	x0, sp, #0x80
    35ec: 94000a4d     	bl	0x5f20 <_ZN7android14AndroidRuntimeD2Ev@plt>
    35f0: f9401768     	ldr	x8, [x27, #0x28]
    35f4: f85f03a9     	ldur	x9, [x29, #-0x10]
    35f8: eb09011f     	cmp	x8, x9
    35fc: 540002c1     	b.ne	0x3654 <.text+0x654>
    3600: 2a1f03e0     	mov	w0, wzr
    3604: 914007ff     	add	sp, sp, #0x1, lsl #12   // =0x1000
    3608: 910443ff     	add	sp, sp, #0x110
    360c: a9454ff4     	ldp	x20, x19, [sp, #0x50]
    3610: a94457f6     	ldp	x22, x21, [sp, #0x40]
    3614: a9435ff8     	ldp	x24, x23, [sp, #0x30]
    3618: a94267fa     	ldp	x26, x25, [sp, #0x20]
    361c: a9416ffc     	ldp	x28, x27, [sp, #0x10]
    3620: a8c67bfd     	ldp	x29, x30, [sp], #0x60
    3624: d65f03c0     	ret
    3628: d0ffffe1     	adrp	x1, 0x1000
    362c: 913bd421     	add	x1, x1, #0xef5
    3630: 52800042     	mov	w2, #0x2                // =2
    3634: aa1403e0     	mov	x0, x20
    3638: 940009ee     	bl	0x5df0 <strncmp@plt>
    363c: 34ffe6a0     	cbz	w0, 0x3310 <.text+0x310>
    3640: 9101c3e0     	add	x0, sp, #0x70
    3644: aa1403e1     	mov	x1, x20
    3648: 11000739     	add	w25, w25, #0x1
    364c: 940009e5     	bl	0x5de0 <_ZN7android7String85setToEPKc@plt>
    3650: 17ffff30     	b	0x3310 <.text+0x310>
    3654: 94000a37     	bl	0x5f30 <__stack_chk_fail@plt>
    3658: 90000028     	adrp	x8, 0x7000
    365c: f941a908     	ldr	x8, [x8, #0x350]
    3660: d0ffffe0     	adrp	x0, 0x1000
    3664: 912ec400     	add	x0, x0, #0xbb1
    3668: 52800561     	mov	w1, #0x2b               // =43
    366c: f9400103     	ldr	x3, [x8]
    3670: 52800022     	mov	w2, #0x1                // =1
    3674: 94000a33     	bl	0x5f40 <fwrite@plt>
    3678: 94000041     	bl	0x377c <.text+0x77c>
    367c: d0ffffe1     	adrp	x1, 0x1000
    3680: d0ffffe2     	adrp	x2, 0x1000
    3684: 913be021     	add	x1, x1, #0xef8
    3688: 913c0042     	add	x2, x2, #0xf00
    368c: aa1f03e0     	mov	x0, xzr
    3690: 94000a30     	bl	0x5f50 <__android_log_assert@plt>
    3694: d0ffffe0     	adrp	x0, 0x1000
    3698: d0ffffe1     	adrp	x1, 0x1000
    369c: d0ffffe2     	adrp	x2, 0x1000
    36a0: 9139c400     	add	x0, x0, #0xe71
    36a4: 913be021     	add	x1, x1, #0xef8
    36a8: 913a1442     	add	x2, x2, #0xe85
    36ac: 94000a29     	bl	0x5f50 <__android_log_assert@plt>
    36b0: 940009f8     	bl	0x5e90 <__errno@plt>
    36b4: b9400000     	ldr	w0, [x0]
    36b8: 94000a2a     	bl	0x5f60 <strerror@plt>
    36bc: aa0003e3     	mov	x3, x0
    36c0: d0ffffe0     	adrp	x0, 0x1000
    36c4: d0ffffe1     	adrp	x1, 0x1000
    36c8: d0ffffe2     	adrp	x2, 0x1000
    36cc: 913d4c00     	add	x0, x0, #0xf53
    36d0: 913be021     	add	x1, x1, #0xef8
    36d4: 9137f042     	add	x2, x2, #0xdfc
    36d8: 94000a1e     	bl	0x5f50 <__android_log_assert@plt>
    36dc: 940009ed     	bl	0x5e90 <__errno@plt>
    36e0: b9400000     	ldr	w0, [x0]
    36e4: 94000a1f     	bl	0x5f60 <strerror@plt>
    36e8: aa0003e3     	mov	x3, x0
    36ec: d0ffffe0     	adrp	x0, 0x1000
    36f0: d0ffffe1     	adrp	x1, 0x1000
    36f4: d0ffffe2     	adrp	x2, 0x1000
    36f8: 91314000     	add	x0, x0, #0xc50
    36fc: 913be021     	add	x1, x1, #0xef8
    3700: 913f8442     	add	x2, x2, #0xfe1
    3704: 94000a13     	bl	0x5f50 <__android_log_assert@plt>
    3708: 940009e2     	bl	0x5e90 <__errno@plt>
    370c: b9400000     	ldr	w0, [x0]
    3710: 94000a14     	bl	0x5f60 <strerror@plt>
    3714: aa0003e3     	mov	x3, x0
    3718: d0ffffe0     	adrp	x0, 0x1000
    371c: d0ffffe1     	adrp	x1, 0x1000
    3720: d0ffffe2     	adrp	x2, 0x1000
    3724: 91314000     	add	x0, x0, #0xc50
    3728: 913be021     	add	x1, x1, #0xef8
    372c: 913e7842     	add	x2, x2, #0xf9e
    3730: 94000a08     	bl	0x5f50 <__android_log_assert@plt>
    3734: d0ffffe1     	adrp	x1, 0x1000
    3738: d0ffffe2     	adrp	x2, 0x1000
    373c: f0ffffe3     	adrp	x3, 0x2000
    3740: 913be021     	add	x1, x1, #0xef8
    3744: 912dd442     	add	x2, x2, #0xb75
    3748: 91019463     	add	x3, x3, #0x65
    374c: aa1f03e0     	mov	x0, xzr
    3750: 94000a00     	bl	0x5f50 <__android_log_assert@plt>
    3754: 94000a03     	bl	0x5f60 <strerror@plt>
    3758: aa0003e4     	mov	x4, x0
    375c: d0ffffe0     	adrp	x0, 0x1000
    3760: d0ffffe1     	adrp	x1, 0x1000
    3764: d0ffffe2     	adrp	x2, 0x1000
    3768: 91331400     	add	x0, x0, #0xcc5
    376c: 913be021     	add	x1, x1, #0xef8
    3770: 9138a042     	add	x2, x2, #0xe28
    3774: 910403e3     	add	x3, sp, #0x100
    3778: 940009f6     	bl	0x5f50 <__android_log_assert@plt>
    377c: 90000028     	adrp	x8, 0x7000
    3780: f941a908     	ldr	x8, [x8, #0x350]
    3784: f0ffffe0     	adrp	x0, 0x2000
    3788: 91003000     	add	x0, x0, #0xc
    378c: 528008a1     	mov	w1, #0x45               // =69
    3790: f9400103     	ldr	x3, [x8]
    3794: 52800022     	mov	w2, #0x1                // =1
    3798: 140009ea     	b	0x5f40 <fwrite@plt>
    379c: a9be7bfd     	stp	x29, x30, [sp, #-0x20]!
    37a0: f9000bf3     	str	x19, [sp, #0x10]
    37a4: 910003fd     	mov	x29, sp
    37a8: 90000028     	adrp	x8, 0x7000
    37ac: 9101e108     	add	x8, x8, #0x78
    37b0: 91004108     	add	x8, x8, #0x10
    37b4: aa0003f3     	mov	x19, x0
    37b8: f9000008     	str	x8, [x0]
    37bc: 940009d1     	bl	0x5f00 <_ZN7android10VectorImpl13finish_vectorEv@plt>
    37c0: aa1303e0     	mov	x0, x19
    37c4: f9400bf3     	ldr	x19, [sp, #0x10]
    37c8: a8c27bfd     	ldp	x29, x30, [sp], #0x20
    37cc: 140009d1     	b	0x5f10 <_ZN7android10VectorImplD2Ev@plt>
    37d0: a9bd7bfd     	stp	x29, x30, [sp, #-0x30]!
    37d4: f9000bf5     	str	x21, [sp, #0x10]
    37d8: a9024ff4     	stp	x20, x19, [sp, #0x20]
    37dc: 910003fd     	mov	x29, sp
    37e0: 90000028     	adrp	x8, 0x7000
    37e4: 90000029     	adrp	x9, 0x7000
    37e8: 9100e108     	add	x8, x8, #0x38
    37ec: 9101e129     	add	x9, x9, #0x78
    37f0: aa0003f4     	mov	x20, x0
    37f4: aa0003f5     	mov	x21, x0
    37f8: 91004108     	add	x8, x8, #0x10
    37fc: 91004129     	add	x9, x9, #0x10
    3800: f8048688     	str	x8, [x20], #0x48
    3804: f8050ea9     	str	x9, [x21, #0x50]!
    3808: aa0003f3     	mov	x19, x0
    380c: aa1503e0     	mov	x0, x21
    3810: 940009bc     	bl	0x5f00 <_ZN7android10VectorImpl13finish_vectorEv@plt>
    3814: aa1503e0     	mov	x0, x21
    3818: 940009be     	bl	0x5f10 <_ZN7android10VectorImplD2Ev@plt>
    381c: aa1403e0     	mov	x0, x20
    3820: 94000988     	bl	0x5e40 <_ZN7android7String8D1Ev@plt>
    3824: aa1303e0     	mov	x0, x19
    3828: a9424ff4     	ldp	x20, x19, [sp, #0x20]
    382c: f9400bf5     	ldr	x21, [sp, #0x10]
    3830: a8c37bfd     	ldp	x29, x30, [sp], #0x30
    3834: 140009bb     	b	0x5f20 <_ZN7android14AndroidRuntimeD2Ev@plt>
    3838: a9bd7bfd     	stp	x29, x30, [sp, #-0x30]!
    383c: f9000bf5     	str	x21, [sp, #0x10]
    3840: a9024ff4     	stp	x20, x19, [sp, #0x20]
    3844: 910003fd     	mov	x29, sp
    3848: 90000028     	adrp	x8, 0x7000
    384c: 90000029     	adrp	x9, 0x7000
    3850: 9100e108     	add	x8, x8, #0x38
    3854: 9101e129     	add	x9, x9, #0x78
    3858: aa0003f4     	mov	x20, x0
    385c: aa0003f5     	mov	x21, x0
    3860: 91004108     	add	x8, x8, #0x10
    3864: 91004129     	add	x9, x9, #0x10
    3868: f8048688     	str	x8, [x20], #0x48
    386c: f8050ea9     	str	x9, [x21, #0x50]!
    3870: aa0003f3     	mov	x19, x0
    3874: aa1503e0     	mov	x0, x21
    3878: 940009a2     	bl	0x5f00 <_ZN7android10VectorImpl13finish_vectorEv@plt>
    387c: aa1503e0     	mov	x0, x21
    3880: 940009a4     	bl	0x5f10 <_ZN7android10VectorImplD2Ev@plt>
    3884: aa1403e0     	mov	x0, x20
    3888: 9400096e     	bl	0x5e40 <_ZN7android7String8D1Ev@plt>
    388c: aa1303e0     	mov	x0, x19
    3890: 940009a4     	bl	0x5f20 <_ZN7android14AndroidRuntimeD2Ev@plt>
    3894: aa1303e0     	mov	x0, x19
    3898: a9424ff4     	ldp	x20, x19, [sp, #0x20]
    389c: f9400bf5     	ldr	x21, [sp, #0x10]
    38a0: a8c37bfd     	ldp	x29, x30, [sp], #0x30
    38a4: 140009b3     	b	0x5f70 <_ZdlPv@plt>
    38a8: a9bd7bfd     	stp	x29, x30, [sp, #-0x30]!
    38ac: a90157f6     	stp	x22, x21, [sp, #0x10]
    38b0: a9024ff4     	stp	x20, x19, [sp, #0x20]
    38b4: 910003fd     	mov	x29, sp
    38b8: 91012015     	add	x21, x0, #0x48
    38bc: aa0003f3     	mov	x19, x0
    38c0: aa1503e0     	mov	x0, x21
    38c4: aa0103f4     	mov	x20, x1
    38c8: 94000952     	bl	0x5e10 <_ZNK7android7String86lengthEv@plt>
    38cc: b4000340     	cbz	x0, 0x3934 <.text+0x934>
    38d0: f9402660     	ldr	x0, [x19, #0x48]
    38d4: 940009ab     	bl	0x5f80 <_ZN7android14AndroidRuntime16toSlashClassNameEPKc@plt>
    38d8: f9400288     	ldr	x8, [x20]
    38dc: aa0003f6     	mov	x22, x0
    38e0: aa1403e0     	mov	x0, x20
    38e4: aa1603e1     	mov	x1, x22
    38e8: f9401908     	ldr	x8, [x8, #0x30]
    38ec: d63f0100     	blr	x8
    38f0: f9003e60     	str	x0, [x19, #0x78]
    38f4: b5000100     	cbnz	x0, 0x3914 <.text+0x914>
    38f8: f94002a3     	ldr	x3, [x21]
    38fc: d0ffffe1     	adrp	x1, 0x1000
    3900: d0ffffe2     	adrp	x2, 0x1000
    3904: 913be021     	add	x1, x1, #0xef8
    3908: 913cc442     	add	x2, x2, #0xf31
    390c: 528000c0     	mov	w0, #0x6                // =6
    3910: 9400093c     	bl	0x5e00 <__android_log_print@plt>
    3914: aa1603e0     	mov	x0, x22
    3918: 9400099e     	bl	0x5f90 <free@plt>
    391c: f9400288     	ldr	x8, [x20]
    3920: f9403e61     	ldr	x1, [x19, #0x78]
    3924: aa1403e0     	mov	x0, x20
    3928: f9405508     	ldr	x8, [x8, #0xa8]
    392c: d63f0100     	blr	x8
    3930: f9003e60     	str	x0, [x19, #0x78]
    3934: a9424ff4     	ldp	x20, x19, [sp, #0x20]
    3938: a94157f6     	ldp	x22, x21, [sp, #0x10]
    393c: a8c37bfd     	ldp	x29, x30, [sp], #0x30
    3940: d65f03c0     	ret
    3944: d100c3ff     	sub	sp, sp, #0x30
    3948: a9017bfd     	stp	x29, x30, [sp, #0x10]
    394c: a9024ff4     	stp	x20, x19, [sp, #0x20]
    3950: 910043fd     	add	x29, sp, #0x10
    3954: d53bd054     	mrs	x20, TPIDR_EL0
    3958: f9401688     	ldr	x8, [x20, #0x28]
    395c: aa0003f3     	mov	x19, x0
    3960: f90007e8     	str	x8, [sp, #0x8]
    3964: 910003e8     	mov	x8, sp
    3968: f90003ff     	str	xzr, [sp]
    396c: 9400098d     	bl	0x5fa0 <_ZN7android12ProcessState4selfEv@plt>
    3970: f94003e0     	ldr	x0, [sp]
    3974: 9400098f     	bl	0x5fb0 <_ZN7android12ProcessState15startThreadPoolEv@plt>
    3978: 94000992     	bl	0x5fc0 <_ZN7android14AndroidRuntime10getRuntimeEv@plt>
    397c: f9403e62     	ldr	x2, [x19, #0x78]
    3980: 91012261     	add	x1, x19, #0x48
    3984: 91014263     	add	x3, x19, #0x50
    3988: 94000992     	bl	0x5fd0 <_ZN7android14AndroidRuntime8callMainERKNS_7String8EP7_jclassRKNS_6VectorIS1_EE@plt>
    398c: 94000995     	bl	0x5fe0 <_ZN7android14IPCThreadState4selfEv@plt>
    3990: 52800021     	mov	w1, #0x1                // =1
    3994: 94000997     	bl	0x5ff0 <_ZN7android14IPCThreadState11stopProcessEb@plt>
    3998: 9400099a     	bl	0x6000 <_ZN7android8hardware14IPCThreadState4selfEv@plt>
    399c: 52800021     	mov	w1, #0x1                // =1
    39a0: 9400099c     	bl	0x6010 <_ZN7android8hardware14IPCThreadState11stopProcessEb@plt>
    39a4: f94003e8     	ldr	x8, [sp]
    39a8: b40000c8     	cbz	x8, 0x39c0 <.text+0x9c0>
    39ac: f9400109     	ldr	x9, [x8]
    39b0: 910003e1     	mov	x1, sp
    39b4: f85e8129     	ldur	x9, [x9, #-0x18]
    39b8: 8b090100     	add	x0, x8, x9
    39bc: 94000999     	bl	0x6020 <_ZNK7android7RefBase9decStrongEPKv@plt>
    39c0: f9401688     	ldr	x8, [x20, #0x28]
    39c4: f94007e9     	ldr	x9, [sp, #0x8]
    39c8: eb09011f     	cmp	x8, x9
    39cc: 540000a1     	b.ne	0x39e0 <.text+0x9e0>
    39d0: a9424ff4     	ldp	x20, x19, [sp, #0x20]
    39d4: a9417bfd     	ldp	x29, x30, [sp, #0x10]
    39d8: 9100c3ff     	add	sp, sp, #0x30
    39dc: d65f03c0     	ret
    39e0: 94000954     	bl	0x5f30 <__stack_chk_fail@plt>
    39e4: d100c3ff     	sub	sp, sp, #0x30
    39e8: a9017bfd     	stp	x29, x30, [sp, #0x10]
    39ec: f90013f3     	str	x19, [sp, #0x20]
    39f0: 910043fd     	add	x29, sp, #0x10
    39f4: d53bd053     	mrs	x19, TPIDR_EL0
    39f8: f9401668     	ldr	x8, [x19, #0x28]
    39fc: f90007e8     	str	x8, [sp, #0x8]
    3a00: 910003e8     	mov	x8, sp
    3a04: f90003ff     	str	xzr, [sp]
    3a08: 94000966     	bl	0x5fa0 <_ZN7android12ProcessState4selfEv@plt>
    3a0c: f94003e0     	ldr	x0, [sp]
    3a10: 94000968     	bl	0x5fb0 <_ZN7android12ProcessState15startThreadPoolEv@plt>
    3a14: f94003e8     	ldr	x8, [sp]
    3a18: b40000c8     	cbz	x8, 0x3a30 <.text+0xa30>
    3a1c: f9400109     	ldr	x9, [x8]
    3a20: 910003e1     	mov	x1, sp
    3a24: f85e8129     	ldur	x9, [x9, #-0x18]
    3a28: 8b090100     	add	x0, x8, x9
    3a2c: 9400097d     	bl	0x6020 <_ZNK7android7RefBase9decStrongEPKv@plt>
    3a30: f9401668     	ldr	x8, [x19, #0x28]
    3a34: f94007e9     	ldr	x9, [sp, #0x8]
    3a38: eb09011f     	cmp	x8, x9
    3a3c: 540000a1     	b.ne	0x3a50 <.text+0xa50>
    3a40: f94013f3     	ldr	x19, [sp, #0x20]
    3a44: a9417bfd     	ldp	x29, x30, [sp, #0x10]
    3a48: 9100c3ff     	add	sp, sp, #0x30
    3a4c: d65f03c0     	ret
    3a50: 94000938     	bl	0x5f30 <__stack_chk_fail@plt>
    3a54: a9bf7bfd     	stp	x29, x30, [sp, #-0x10]!
    3a58: 910003fd     	mov	x29, sp
    3a5c: 91012000     	add	x0, x0, #0x48
    3a60: 940008ec     	bl	0x5e10 <_ZNK7android7String86lengthEv@plt>
    3a64: b4000060     	cbz	x0, 0x3a70 <.text+0xa70>
    3a68: a8c17bfd     	ldp	x29, x30, [sp], #0x10
    3a6c: d65f03c0     	ret
    3a70: 9400095c     	bl	0x5fe0 <_ZN7android14IPCThreadState4selfEv@plt>
    3a74: 52800021     	mov	w1, #0x1                // =1
    3a78: 9400095e     	bl	0x5ff0 <_ZN7android14IPCThreadState11stopProcessEb@plt>
    3a7c: 94000961     	bl	0x6000 <_ZN7android8hardware14IPCThreadState4selfEv@plt>
    3a80: 52800021     	mov	w1, #0x1                // =1
    3a84: a8c17bfd     	ldp	x29, x30, [sp], #0x10
    3a88: 14000962     	b	0x6010 <_ZN7android8hardware14IPCThreadState11stopProcessEb@plt>
    3a8c: d10443ff     	sub	sp, sp, #0x110
    3a90: a90f7bfd     	stp	x29, x30, [sp, #0xf0]
    3a94: a9104ffc     	stp	x28, x19, [sp, #0x100]
    3a98: 9103c3fd     	add	x29, sp, #0xf0
    3a9c: a93917a4     	stp	x4, x5, [x29, #-0x70]
    3aa0: a93a1fa6     	stp	x6, x7, [x29, #-0x60]
    3aa4: ad0007e0     	stp	q0, q1, [sp]
    3aa8: ad010fe2     	stp	q2, q3, [sp, #0x20]
    3aac: ad0217e4     	stp	q4, q5, [sp, #0x40]
    3ab0: ad031fe6     	stp	q6, q7, [sp, #0x60]
    3ab4: d53bd053     	mrs	x19, TPIDR_EL0
    3ab8: f9401668     	ldr	x8, [x19, #0x28]
    3abc: d101c3aa     	sub	x10, x29, #0x70
    3ac0: 910003eb     	mov	x11, sp
    3ac4: 6f00e400     	movi	v0.2d, #0000000000000000
    3ac8: f81f83a8     	stur	x8, [x29, #-0x8]
    3acc: 928003e8     	mov	x8, #-0x20              // =-32
    3ad0: 910083a9     	add	x9, x29, #0x20
    3ad4: f2dff008     	movk	x8, #0xff80, lsl #32
    3ad8: 9100814a     	add	x10, x10, #0x20
    3adc: 9102016b     	add	x11, x11, #0x80
    3ae0: ad3e83a0     	stp	q0, q0, [x29, #-0x30]
    3ae4: a93d2ba9     	stp	x9, x10, [x29, #-0x30]
    3ae8: a93e23ab     	stp	x11, x8, [x29, #-0x20]
    3aec: ad7e87a0     	ldp	q0, q1, [x29, #-0x30]
    3af0: d0ffffe2     	adrp	x2, 0x1000
    3af4: 913f2c42     	add	x2, x2, #0xfcb
    3af8: d10143a3     	sub	x3, x29, #0x50
    3afc: 52820001     	mov	w1, #0x1000             // =4096
    3b00: ad3d87a0     	stp	q0, q1, [x29, #-0x50]
    3b04: 9400094b     	bl	0x6030 <vsnprintf@plt>
    3b08: f9401668     	ldr	x8, [x19, #0x28]
    3b0c: f85f83a9     	ldur	x9, [x29, #-0x8]
    3b10: eb09011f     	cmp	x8, x9
    3b14: 540000a1     	b.ne	0x3b28 <.text+0xb28>
    3b18: a9504ffc     	ldp	x28, x19, [sp, #0x100]
    3b1c: a94f7bfd     	ldp	x29, x30, [sp, #0xf0]
    3b20: 910443ff     	add	sp, sp, #0x110
    3b24: d65f03c0     	ret
    3b28: 94000902     	bl	0x5f30 <__stack_chk_fail@plt>
    3b2c: a9be7bfd     	stp	x29, x30, [sp, #-0x20]!
    3b30: f9000bf3     	str	x19, [sp, #0x10]
    3b34: 910003fd     	mov	x29, sp
    3b38: 90000028     	adrp	x8, 0x7000
    3b3c: 9101e108     	add	x8, x8, #0x78
    3b40: 91004108     	add	x8, x8, #0x10
    3b44: aa0003f3     	mov	x19, x0
    3b48: f9000008     	str	x8, [x0]
    3b4c: 940008ed     	bl	0x5f00 <_ZN7android10VectorImpl13finish_vectorEv@plt>
    3b50: aa1303e0     	mov	x0, x19
    3b54: 940008ef     	bl	0x5f10 <_ZN7android10VectorImplD2Ev@plt>
    3b58: aa1303e0     	mov	x0, x19
    3b5c: f9400bf3     	ldr	x19, [sp, #0x10]
    3b60: a8c27bfd     	ldp	x29, x30, [sp], #0x20
    3b64: 14000903     	b	0x5f70 <_ZdlPv@plt>
    3b68: a9be7bfd     	stp	x29, x30, [sp, #-0x20]!
    3b6c: a9014ff4     	stp	x20, x19, [sp, #0x10]
    3b70: 910003fd     	mov	x29, sp
    3b74: b4000102     	cbz	x2, 0x3b94 <.text+0xb94>
    3b78: aa0203f3     	mov	x19, x2
    3b7c: aa0103e0     	mov	x0, x1
    3b80: d1000673     	sub	x19, x19, #0x1
    3b84: 91002014     	add	x20, x0, #0x8
    3b88: 94000882     	bl	0x5d90 <_ZN7android7String8C1Ev@plt>
    3b8c: aa1403e0     	mov	x0, x20
    3b90: b5ffff93     	cbnz	x19, 0x3b80 <.text+0xb80>
    3b94: a9414ff4     	ldp	x20, x19, [sp, #0x10]
    3b98: a8c27bfd     	ldp	x29, x30, [sp], #0x20
    3b9c: d65f03c0     	ret
    3ba0: a9be7bfd     	stp	x29, x30, [sp, #-0x20]!
    3ba4: a9014ff4     	stp	x20, x19, [sp, #0x10]
    3ba8: 910003fd     	mov	x29, sp
    3bac: b4000102     	cbz	x2, 0x3bcc <.text+0xbcc>
    3bb0: aa0203f3     	mov	x19, x2
    3bb4: aa0103f4     	mov	x20, x1
    3bb8: aa1403e0     	mov	x0, x20
    3bbc: d1000673     	sub	x19, x19, #0x1
    3bc0: 940008a0     	bl	0x5e40 <_ZN7android7String8D1Ev@plt>
    3bc4: 91002294     	add	x20, x20, #0x8
    3bc8: b5ffff93     	cbnz	x19, 0x3bb8 <.text+0xbb8>
    3bcc: a9414ff4     	ldp	x20, x19, [sp, #0x10]
    3bd0: a8c27bfd     	ldp	x29, x30, [sp], #0x20
    3bd4: d65f03c0     	ret
    3bd8: a9bd7bfd     	stp	x29, x30, [sp, #-0x30]!
    3bdc: f9000bf5     	str	x21, [sp, #0x10]
    3be0: a9024ff4     	stp	x20, x19, [sp, #0x20]
    3be4: 910003fd     	mov	x29, sp
    3be8: b4000163     	cbz	x3, 0x3c14 <.text+0xc14>
    3bec: aa0303f3     	mov	x19, x3
    3bf0: aa0203f4     	mov	x20, x2
    3bf4: aa0103f5     	mov	x21, x1
    3bf8: aa1503e0     	mov	x0, x21
    3bfc: aa1403e1     	mov	x1, x20
    3c00: d1000673     	sub	x19, x19, #0x1
    3c04: 9400090f     	bl	0x6040 <_ZN7android7String8C1ERKS0_@plt>
    3c08: 910022b5     	add	x21, x21, #0x8
    3c0c: 91002294     	add	x20, x20, #0x8
    3c10: b5ffff53     	cbnz	x19, 0x3bf8 <.text+0xbf8>
    3c14: a9424ff4     	ldp	x20, x19, [sp, #0x20]
    3c18: f9400bf5     	ldr	x21, [sp, #0x10]
    3c1c: a8c37bfd     	ldp	x29, x30, [sp], #0x30
    3c20: d65f03c0     	ret
    3c24: a9bd7bfd     	stp	x29, x30, [sp, #-0x30]!
    3c28: f9000bf5     	str	x21, [sp, #0x10]
    3c2c: a9024ff4     	stp	x20, x19, [sp, #0x20]
    3c30: 910003fd     	mov	x29, sp
    3c34: b4000143     	cbz	x3, 0x3c5c <.text+0xc5c>
    3c38: aa0303f3     	mov	x19, x3
    3c3c: aa0203f4     	mov	x20, x2
    3c40: aa0103f5     	mov	x21, x1
    3c44: aa1503e0     	mov	x0, x21
    3c48: aa1403e1     	mov	x1, x20
    3c4c: d1000673     	sub	x19, x19, #0x1
    3c50: 940008fc     	bl	0x6040 <_ZN7android7String8C1ERKS0_@plt>
    3c54: 910022b5     	add	x21, x21, #0x8
    3c58: b5ffff73     	cbnz	x19, 0x3c44 <.text+0xc44>
    3c5c: a9424ff4     	ldp	x20, x19, [sp, #0x20]
    3c60: f9400bf5     	ldr	x21, [sp, #0x10]
    3c64: a8c37bfd     	ldp	x29, x30, [sp], #0x30
    3c68: d65f03c0     	ret
    3c6c: a9bf7bfd     	stp	x29, x30, [sp, #-0x10]!
    3c70: 910003fd     	mov	x29, sp
    3c74: aa0203e8     	mov	x8, x2
    3c78: aa0103e0     	mov	x0, x1
    3c7c: d37df062     	lsl	x2, x3, #3
    3c80: aa0803e1     	mov	x1, x8
    3c84: 940008f3     	bl	0x6050 <memmove@plt>
    3c88: a8c17bfd     	ldp	x29, x30, [sp], #0x10
    3c8c: d65f03c0     	ret
    3c90: d103c3ff     	sub	sp, sp, #0xf0
    3c94: a9097bfd     	stp	x29, x30, [sp, #0x90]
    3c98: a90a6ffc     	stp	x28, x27, [sp, #0xa0]
    3c9c: a90b67fa     	stp	x26, x25, [sp, #0xb0]
    3ca0: a90c5ff8     	stp	x24, x23, [sp, #0xc0]
    3ca4: a90d57f6     	stp	x22, x21, [sp, #0xd0]
    3ca8: a90e4ff4     	stp	x20, x19, [sp, #0xe0]
    3cac: 910243fd     	add	x29, sp, #0x90
    3cb0: d53bd049     	mrs	x9, TPIDR_EL0
    3cb4: a9040be9     	stp	x9, x2, [sp, #0x40]
    3cb8: d100c3a8     	sub	x8, x29, #0x30
    3cbc: f9401529     	ldr	x9, [x9, #0x28]
    3cc0: b240010a     	orr	x10, x8, #0x1
    3cc4: f90017ea     	str	x10, [sp, #0x28]
    3cc8: 91007d14     	add	x20, x8, #0x1f
    3ccc: b27f010a     	orr	x10, x8, #0x2
    3cd0: b240050b     	orr	x11, x8, #0x3
    3cd4: aa2803e8     	mvn	x8, x8
    3cd8: aa0003f3     	mov	x19, x0
    3cdc: 2a1f03f9     	mov	w25, wzr
    3ce0: d100043b     	sub	x27, x1, #0x1
    3ce4: 6f00e400     	movi	v0.2d, #0000000000000000
    3ce8: 5280011c     	mov	w28, #0x8               // =8
    3cec: a900a3eb     	stp	x11, x8, [sp, #0x8]
    3cf0: aa2a03e8     	mvn	x8, x10
    3cf4: a901abe8     	stp	x8, x10, [sp, #0x18]
    3cf8: f81f83a9     	stur	x9, [x29, #-0x8]
    3cfc: f81c03a1     	stur	x1, [x29, #-0x40]
    3d00: 93407f29     	sxtw	x9, w25
    3d04: aa1f03e0     	mov	x0, xzr
    3d08: 2a1903e8     	mov	w8, w25
    3d0c: 8b09002a     	add	x10, x1, x9
    3d10: ad3e83a0     	stp	q0, q0, [x29, #-0x30]
    3d14: 38606958     	ldrb	w24, [x10, x0]
    3d18: 340000d8     	cbz	w24, 0x3d30 <.text+0xd30>
    3d1c: 7100971f     	cmp	w24, #0x25
    3d20: 54000080     	b.eq	0x3d30 <.text+0xd30>
    3d24: 91000400     	add	x0, x0, #0x1
    3d28: 38606958     	ldrb	w24, [x10, x0]
    3d2c: 35ffff98     	cbnz	w24, 0x3d1c <.text+0xd1c>
    3d30: 8b000115     	add	x21, x8, x0
    3d34: 6b15013f     	cmp	w9, w21
    3d38: 540003aa     	b.ge	0x3dac <.text+0xdac>
    3d3c: 8b090036     	add	x22, x1, x9
    3d40: 36f80080     	tbz	w0, #0x1f, 0x3d50 <.text+0xd50>
    3d44: 92800001     	mov	x1, #-0x1               // =-1
    3d48: aa1603e0     	mov	x0, x22
    3d4c: 94000809     	bl	0x5d70 <__strlen_chk@plt>
    3d50: f940026a     	ldr	x10, [x19]
    3d54: f9400a69     	ldr	x9, [x19, #0x10]
    3d58: 93407c08     	sxtw	x8, w0
    3d5c: 8b08014a     	add	x10, x10, x8
    3d60: f100053f     	cmp	x9, #0x1
    3d64: f900026a     	str	x10, [x19]
    3d68: 54000209     	b.ls	0x3da8 <.text+0xda8>
    3d6c: 5100052a     	sub	w10, w9, #0x1
    3d70: f9400660     	ldr	x0, [x19, #0x8]
    3d74: eb08013f     	cmp	x9, x8
    3d78: 1a8a8108     	csel	w8, w8, w10, hi
    3d7c: 93407d17     	sxtw	x23, w8
    3d80: aa1603e1     	mov	x1, x22
    3d84: aa1703e2     	mov	x2, x23
    3d88: 940008b6     	bl	0x6060 <memcpy@plt>
    3d8c: f9400668     	ldr	x8, [x19, #0x8]
    3d90: 8b170109     	add	x9, x8, x23
    3d94: f9000669     	str	x9, [x19, #0x8]
    3d98: 3837691f     	strb	wzr, [x8, x23]
    3d9c: f9400a68     	ldr	x8, [x19, #0x10]
    3da0: cb170108     	sub	x8, x8, x23
    3da4: f9000a68     	str	x8, [x19, #0x10]
    3da8: 2a1503e8     	mov	w8, w21
    3dac: f94027ee     	ldr	x14, [sp, #0x48]
    3db0: 52800610     	mov	w16, #0x30              // =48
    3db4: 34004058     	cbz	w24, 0x45bc <.text+0x15bc>
    3db8: 2a1f03f7     	mov	w23, wzr
    3dbc: 2a1f03f5     	mov	w21, wzr
    3dc0: 2a1f03fa     	mov	w26, wzr
    3dc4: 11000519     	add	w25, w8, #0x1
    3dc8: 8b39c369     	add	x9, x27, w25, sxtw
    3dcc: 2a1a03eb     	mov	w11, w26
    3dd0: 38401d28     	ldrb	w8, [x9, #0x1]!
    3dd4: 2a0b03fa     	mov	w26, w11
    3dd8: 11000739     	add	w25, w25, #0x1
    3ddc: 5280002b     	mov	w11, #0x1               // =1
    3de0: 7100c10a     	subs	w10, w8, #0x30
    3de4: 54ffff60     	b.eq	0x3dd0 <.text+0xdd0>
    3de8: 7100a91f     	cmp	w8, #0x2a
    3dec: 540000ac     	b.gt	0x3e00 <.text+0xe00>
    3df0: 34003c68     	cbz	w8, 0x457c <.text+0x157c>
    3df4: 7100811f     	cmp	w8, #0x20
    3df8: 54000100     	b.eq	0x3e18 <.text+0xe18>
    3dfc: 14000009     	b	0x3e20 <.text+0xe20>
    3e00: 7100ad1f     	cmp	w8, #0x2b
    3e04: 540000a0     	b.eq	0x3e18 <.text+0xe18>
    3e08: 7100b51f     	cmp	w8, #0x2d
    3e0c: 540000a1     	b.ne	0x3e20 <.text+0xe20>
    3e10: 52800035     	mov	w21, #0x1               // =1
    3e14: 17ffffed     	b	0x3dc8 <.text+0xdc8>
    3e18: 2a0803f7     	mov	w23, w8
    3e1c: 17ffffeb     	b	0x3dc8 <.text+0xdc8>
    3e20: 7100255f     	cmp	w10, #0x9
    3e24: f9001ffb     	str	x27, [sp, #0x38]
    3e28: 540000a8     	b.hi	0x3e3c <.text+0xe3c>
    3e2c: 7100255f     	cmp	w10, #0x9
    3e30: 54000109     	b.ls	0x3e50 <.text+0xe50>
    3e34: 2a1f03fb     	mov	w27, wzr
    3e38: 1400000d     	b	0x3e6c <.text+0xe6c>
    3e3c: 1280001b     	mov	w27, #-0x1              // =-1
    3e40: 7100b91f     	cmp	w8, #0x2e
    3e44: 54000200     	b.eq	0x3e84 <.text+0xe84>
    3e48: 12800018     	mov	w24, #-0x1              // =-1
    3e4c: 14000021     	b	0x3ed0 <.text+0xed0>
    3e50: 2a1f03fb     	mov	w27, wzr
    3e54: 5280014b     	mov	w11, #0xa               // =10
    3e58: 38401d28     	ldrb	w8, [x9, #0x1]!
    3e5c: 1b0b2b7b     	madd	w27, w27, w11, w10
    3e60: 5100c10a     	sub	w10, w8, #0x30
    3e64: 7100295f     	cmp	w10, #0xa
    3e68: 54ffff83     	b.lo	0x3e58 <.text+0xe58>
    3e6c: f85c03a8     	ldur	x8, [x29, #-0x40]
    3e70: cb080129     	sub	x9, x9, x8
    3e74: 3869c908     	ldrb	w8, [x8, w9, sxtw]
    3e78: 11000539     	add	w25, w9, #0x1
    3e7c: 7100b91f     	cmp	w8, #0x2e
    3e80: 54fffe41     	b.ne	0x3e48 <.text+0xe48>
    3e84: f85c03a8     	ldur	x8, [x29, #-0x40]
    3e88: 8b39c108     	add	x8, x8, w25, sxtw
    3e8c: 39400109     	ldrb	w9, [x8]
    3e90: 5100c129     	sub	w9, w9, #0x30
    3e94: 7100253f     	cmp	w9, #0x9
    3e98: 54000069     	b.ls	0x3ea4 <.text+0xea4>
    3e9c: 2a1f03f8     	mov	w24, wzr
    3ea0: 14000008     	b	0x3ec0 <.text+0xec0>
    3ea4: 2a1f03f8     	mov	w24, wzr
    3ea8: 5280014b     	mov	w11, #0xa               // =10
    3eac: 38401d0a     	ldrb	w10, [x8, #0x1]!
    3eb0: 1b0b2718     	madd	w24, w24, w11, w9
    3eb4: 5100c149     	sub	w9, w10, #0x30
    3eb8: 7100293f     	cmp	w9, #0xa
    3ebc: 54ffff83     	b.lo	0x3eac <.text+0xeac>
    3ec0: f85c03aa     	ldur	x10, [x29, #-0x40]
    3ec4: cb0a0109     	sub	x9, x8, x10
    3ec8: 3869c948     	ldrb	w8, [x10, w9, sxtw]
    3ecc: 11000539     	add	w25, w9, #0x1
    3ed0: 5101a109     	sub	w9, w8, #0x68
    3ed4: 1389052a     	ror	w10, w9, #0x1
    3ed8: 7100255f     	cmp	w10, #0x9
    3edc: 52800089     	mov	w9, #0x4                // =4
    3ee0: 540003c8     	b.hi	0x3f58 <.text+0xf58>
    3ee4: f0ffffed     	adrp	x13, 0x2000
    3ee8: 9101f9ad     	add	x13, x13, #0x7e
    3eec: 1000008b     	adr	x11, 0x3efc <.text+0xefc>
    3ef0: 386a69ac     	ldrb	w12, [x13, x10]
    3ef4: 8b0c096b     	add	x11, x11, x12, lsl #2
    3ef8: d61f0160     	br	x11
    3efc: f85c03a8     	ldur	x8, [x29, #-0x40]
    3f00: 11000729     	add	w9, w25, #0x1
    3f04: 3879c908     	ldrb	w8, [x8, w25, sxtw]
    3f08: 2a0903f9     	mov	w25, w9
    3f0c: 14000012     	b	0x3f54 <.text+0xf54>
    3f10: f85c03ab     	ldur	x11, [x29, #-0x40]
    3f14: 93407f28     	sxtw	x8, w25
    3f18: 38686969     	ldrb	w9, [x11, x8]
    3f1c: 7101a13f     	cmp	w9, #0x68
    3f20: 9a88150a     	cinc	x10, x8, eq
    3f24: 386a6968     	ldrb	w8, [x11, x10]
    3f28: 52800029     	mov	w9, #0x1                // =1
    3f2c: 9a890529     	cinc	x9, x9, ne
    3f30: 11000559     	add	w25, w10, #0x1
    3f34: 14000009     	b	0x3f58 <.text+0xf58>
    3f38: f85c03aa     	ldur	x10, [x29, #-0x40]
    3f3c: 93407f28     	sxtw	x8, w25
    3f40: 38686949     	ldrb	w9, [x10, x8]
    3f44: 7101b13f     	cmp	w9, #0x6c
    3f48: 9a881509     	cinc	x9, x8, eq
    3f4c: 38696948     	ldrb	w8, [x10, x9]
    3f50: 11000539     	add	w25, w9, #0x1
    3f54: 52800109     	mov	w9, #0x8                // =8
    3f58: 5100950a     	sub	w10, w8, #0x25
    3f5c: 71014d5f     	cmp	w10, #0x53
    3f60: 54003488     	b.hi	0x45f0 <.text+0x15f0>
    3f64: f0ffffed     	adrp	x13, 0x2000
    3f68: 910221ad     	add	x13, x13, #0x88
    3f6c: 100000ab     	adr	x11, 0x3f80 <.text+0xf80>
    3f70: 786a79ac     	ldrh	w12, [x13, x10, lsl #1]
    3f74: 8b0c096b     	add	x11, x11, x12, lsl #2
    3f78: 5280002a     	mov	w10, #0x1               // =1
    3f7c: d61f0160     	br	x11
    3f80: 2a1f03ea     	mov	w10, wzr
    3f84: d100052b     	sub	x11, x9, #0x1
    3f88: f1001d7f     	cmp	x11, #0x7
    3f8c: 54003188     	b.hi	0x45bc <.text+0x15bc>
    3f90: f0ffffef     	adrp	x15, 0x2000
    3f94: 9104c1ef     	add	x15, x15, #0x130
    3f98: 1000008c     	adr	x12, 0x3fa8 <.text+0xfa8>
    3f9c: 786b79ed     	ldrh	w13, [x15, x11, lsl #1]
    3fa0: 8b0d098c     	add	x12, x12, x13, lsl #2
    3fa4: d61f0180     	br	x12
    3fa8: b98019cb     	ldrsw	x11, [x14, #0x18]
    3fac: 36f804cb     	tbz	w11, #0x1f, 0x4044 <.text+0x1044>
    3fb0: 1100216c     	add	w12, w11, #0x8
    3fb4: 3100217f     	cmn	w11, #0x8
    3fb8: b90019cc     	str	w12, [x14, #0x18]
    3fbc: 5400044c     	b.gt	0x4044 <.text+0x1044>
    3fc0: f94005cc     	ldr	x12, [x14, #0x8]
    3fc4: 8b0b018b     	add	x11, x12, x11
    3fc8: 3940016b     	ldrb	w11, [x11]
    3fcc: 14000031     	b	0x4090 <.text+0x1090>
    3fd0: b98019cb     	ldrsw	x11, [x14, #0x18]
    3fd4: 36f8042b     	tbz	w11, #0x1f, 0x4058 <.text+0x1058>
    3fd8: 1100216c     	add	w12, w11, #0x8
    3fdc: 3100217f     	cmn	w11, #0x8
    3fe0: b90019cc     	str	w12, [x14, #0x18]
    3fe4: 540003ac     	b.gt	0x4058 <.text+0x1058>
    3fe8: f94005cc     	ldr	x12, [x14, #0x8]
    3fec: 8b0b018b     	add	x11, x12, x11
    3ff0: 7940016b     	ldrh	w11, [x11]
    3ff4: 14000027     	b	0x4090 <.text+0x1090>
    3ff8: b98019cb     	ldrsw	x11, [x14, #0x18]
    3ffc: 36f8038b     	tbz	w11, #0x1f, 0x406c <.text+0x106c>
    4000: 1100216c     	add	w12, w11, #0x8
    4004: 3100217f     	cmn	w11, #0x8
    4008: b90019cc     	str	w12, [x14, #0x18]
    400c: 5400030c     	b.gt	0x406c <.text+0x106c>
    4010: f94005cc     	ldr	x12, [x14, #0x8]
    4014: 8b0b018b     	add	x11, x12, x11
    4018: b940016b     	ldr	w11, [x11]
    401c: 1400001d     	b	0x4090 <.text+0x1090>
    4020: b98019cb     	ldrsw	x11, [x14, #0x18]
    4024: 36f802eb     	tbz	w11, #0x1f, 0x4080 <.text+0x1080>
    4028: 1100216c     	add	w12, w11, #0x8
    402c: 3100217f     	cmn	w11, #0x8
    4030: b90019cc     	str	w12, [x14, #0x18]
    4034: 5400026c     	b.gt	0x4080 <.text+0x1080>
    4038: f94005cc     	ldr	x12, [x14, #0x8]
    403c: 8b0b018b     	add	x11, x12, x11
    4040: 14000013     	b	0x408c <.text+0x108c>
    4044: f94001cb     	ldr	x11, [x14]
    4048: 9100216c     	add	x12, x11, #0x8
    404c: f90001cc     	str	x12, [x14]
    4050: 3940016b     	ldrb	w11, [x11]
    4054: 1400000f     	b	0x4090 <.text+0x1090>
    4058: f94001cb     	ldr	x11, [x14]
    405c: 9100216c     	add	x12, x11, #0x8
    4060: f90001cc     	str	x12, [x14]
    4064: 7940016b     	ldrh	w11, [x11]
    4068: 1400000a     	b	0x4090 <.text+0x1090>
    406c: f94001cb     	ldr	x11, [x14]
    4070: 9100216c     	add	x12, x11, #0x8
    4074: f90001cc     	str	x12, [x14]
    4078: b940016b     	ldr	w11, [x11]
    407c: 14000005     	b	0x4090 <.text+0x1090>
    4080: f94001cb     	ldr	x11, [x14]
    4084: 9100216c     	add	x12, x11, #0x8
    4088: f90001cc     	str	x12, [x14]
    408c: f940016b     	ldr	x11, [x11]
    4090: 531d7129     	lsl	w9, w9, #3
    4094: 4b0903e9     	neg	w9, w9
    4098: 9ac9216c     	lsl	x12, x11, x9
    409c: 7100015f     	cmp	w10, #0x0
    40a0: 5101910a     	sub	w10, w8, #0x64
    40a4: 9ac92989     	asr	x9, x12, x9
    40a8: 9a8b1129     	csel	x9, x9, x11, ne
    40ac: 71002d5f     	cmp	w10, #0xb
    40b0: 54000288     	b.hi	0x4100 <.text+0x1100>
    40b4: 5280002b     	mov	w11, #0x1               // =1
    40b8: 1aca216a     	lsl	w10, w11, w10
    40bc: 5281042b     	mov	w11, #0x821             // =2081
    40c0: 6a0b015f     	tst	w10, w11
    40c4: 540001e0     	b.eq	0x4100 <.text+0x1100>
    40c8: 321b010a     	orr	w10, w8, #0x20
    40cc: 7101e15f     	cmp	w10, #0x78
    40d0: 1a9f17eb     	cset	w11, eq
    40d4: 7101bd1f     	cmp	w8, #0x6f
    40d8: 1a9f17ec     	cset	w12, eq
    40dc: b7f80069     	tbnz	x9, #0x3f, 0x40e8 <.text+0x10e8>
    40e0: 52800aea     	mov	w10, #0x57              // =87
    40e4: 1400000f     	b	0x4120 <.text+0x1120>
    40e8: 528005a8     	mov	w8, #0x2d               // =45
    40ec: 381d03a8     	sturb	w8, [x29, #-0x30]
    40f0: f94017e8     	ldr	x8, [sp, #0x28]
    40f4: cb0903e9     	neg	x9, x9
    40f8: 52800aea     	mov	w10, #0x57              // =87
    40fc: 1400000c     	b	0x412c <.text+0x112c>
    4100: 321b010a     	orr	w10, w8, #0x20
    4104: 7101e15f     	cmp	w10, #0x78
    4108: 1a9f17eb     	cset	w11, eq
    410c: 7101611f     	cmp	w8, #0x58
    4110: 52800ae8     	mov	w8, #0x57               // =87
    4114: 528006ea     	mov	w10, #0x37              // =55
    4118: 2a1f03ec     	mov	w12, wzr
    411c: 1a88014a     	csel	w10, w10, w8, eq
    4120: d100c3a8     	sub	x8, x29, #0x30
    4124: d100c3ad     	sub	x13, x29, #0x30
    4128: b4000309     	cbz	x9, 0x4188 <.text+0x1188>
    412c: 7100019f     	cmp	w12, #0x0
    4130: 5280014c     	mov	w12, #0xa               // =10
    4134: 9a8c138c     	csel	x12, x28, x12, ne
    4138: 7100017f     	cmp	w11, #0x0
    413c: 5280020b     	mov	w11, #0x10              // =16
    4140: 9a8c116b     	csel	x11, x11, x12, ne
    4144: aa0803ec     	mov	x12, x8
    4148: 14000005     	b	0x415c <.text+0x115c>
    414c: eb0b013f     	cmp	x9, x11
    4150: aa0e03e9     	mov	x9, x14
    4154: aa0d03ec     	mov	x12, x13
    4158: 54000183     	b.lo	0x4188 <.text+0x1188>
    415c: eb14019f     	cmp	x12, x20
    4160: 9acb092e     	udiv	x14, x9, x11
    4164: aa1403ed     	mov	x13, x20
    4168: 54ffff20     	b.eq	0x414c <.text+0x114c>
    416c: 1b0ba5cd     	msub	w13, w14, w11, w9
    4170: 710029bf     	cmp	w13, #0xa
    4174: 1a8a320f     	csel	w15, w16, w10, lo
    4178: 0b0d01ed     	add	w13, w15, w13
    417c: 3800158d     	strb	w13, [x12], #0x1
    4180: aa0c03ed     	mov	x13, x12
    4184: 17fffff2     	b	0x414c <.text+0x114c>
    4188: eb0801bf     	cmp	x13, x8
    418c: 540000a1     	b.ne	0x41a0 <.text+0x11a0>
    4190: eb1401bf     	cmp	x13, x20
    4194: 54000060     	b.eq	0x41a0 <.text+0x11a0>
    4198: aa0803ed     	mov	x13, x8
    419c: 380015b0     	strb	w16, [x13], #0x1
    41a0: aa2803e9     	mvn	x9, x8
    41a4: ab0901a9     	adds	x9, x13, x9
    41a8: 390001bf     	strb	wzr, [x13]
    41ac: 54000140     	b.eq	0x41d4 <.text+0x11d4>
    41b0: aa1f03ea     	mov	x10, xzr
    41b4: 3869690b     	ldrb	w11, [x8, x9]
    41b8: 386a690c     	ldrb	w12, [x8, x10]
    41bc: 382a690b     	strb	w11, [x8, x10]
    41c0: 3829690c     	strb	w12, [x8, x9]
    41c4: 9100054a     	add	x10, x10, #0x1
    41c8: d1000529     	sub	x9, x9, #0x1
    41cc: eb09015f     	cmp	x10, x9
    41d0: 54ffff23     	b.lo	0x41b4 <.text+0x11b4>
    41d4: d100c3b6     	sub	x22, x29, #0x30
    41d8: 92800001     	mov	x1, #-0x1               // =-1
    41dc: aa1603e0     	mov	x0, x22
    41e0: 940006e4     	bl	0x5d70 <__strlen_chk@plt>
    41e4: 72001eff     	tst	w23, #0xff
    41e8: 54002101     	b.ne	0x4608 <.text+0x1608>
    41ec: 3100071f     	cmn	w24, #0x1
    41f0: 540020c1     	b.ne	0x4608 <.text+0x1608>
    41f4: aa0003f7     	mov	x23, x0
    41f8: 52800118     	mov	w24, #0x8               // =8
    41fc: b90037f5     	str	w21, [sp, #0x34]
    4200: 35000155     	cbnz	w21, 0x4228 <.text+0x1228>
    4204: 6b170375     	subs	w21, w27, w23
    4208: 5400010d     	b.le	0x4228 <.text+0x1228>
    420c: 7100035f     	cmp	w26, #0x0
    4210: b204c7e8     	mov	x8, #0x3030303030303030 // =3472328296227680304
    4214: b203c3e9     	mov	x9, #0x2020202020202020 // =2314885530818453536
    4218: 9a880128     	csel	x8, x9, x8, eq
    421c: 710006bf     	cmp	w21, #0x1
    4220: f81c83a8     	stur	x8, [x29, #-0x38]
    4224: 5400060a     	b.ge	0x42e4 <.text+0x12e4>
    4228: 2a1703e0     	mov	w0, w23
    422c: 36f80097     	tbz	w23, #0x1f, 0x423c <.text+0x123c>
    4230: 92800001     	mov	x1, #-0x1               // =-1
    4234: aa1603e0     	mov	x0, x22
    4238: 940006ce     	bl	0x5d70 <__strlen_chk@plt>
    423c: f940026a     	ldr	x10, [x19]
    4240: f9400a68     	ldr	x8, [x19, #0x10]
    4244: 93407c09     	sxtw	x9, w0
    4248: 8b09014a     	add	x10, x10, x9
    424c: f100091f     	cmp	x8, #0x2
    4250: f900026a     	str	x10, [x19]
    4254: 54000223     	b.lo	0x4298 <.text+0x1298>
    4258: 5100050a     	sub	w10, w8, #0x1
    425c: f9400660     	ldr	x0, [x19, #0x8]
    4260: eb09011f     	cmp	x8, x9
    4264: 1a8a8128     	csel	w8, w9, w10, hi
    4268: 93407d18     	sxtw	x24, w8
    426c: aa1603e1     	mov	x1, x22
    4270: aa1803e2     	mov	x2, x24
    4274: 9400077b     	bl	0x6060 <memcpy@plt>
    4278: f9400668     	ldr	x8, [x19, #0x8]
    427c: 8b180109     	add	x9, x8, x24
    4280: f9000669     	str	x9, [x19, #0x8]
    4284: 3838691f     	strb	wzr, [x8, x24]
    4288: f9400a68     	ldr	x8, [x19, #0x10]
    428c: cb180108     	sub	x8, x8, x24
    4290: 52800118     	mov	w24, #0x8               // =8
    4294: f9000a68     	str	x8, [x19, #0x10]
    4298: b94037e9     	ldr	w9, [sp, #0x34]
    429c: 6f00e400     	movi	v0.2d, #0000000000000000
    42a0: 34000149     	cbz	w9, 0x42c8 <.text+0x12c8>
    42a4: 6b170377     	subs	w23, w27, w23
    42a8: 5400010d     	b.le	0x42c8 <.text+0x12c8>
    42ac: 7100035f     	cmp	w26, #0x0
    42b0: b204c7e9     	mov	x9, #0x3030303030303030 // =3472328296227680304
    42b4: b203c3ea     	mov	x10, #0x2020202020202020 // =2314885530818453536
    42b8: 9a890149     	csel	x9, x10, x9, eq
    42bc: 710006ff     	cmp	w23, #0x1
    42c0: f81c83a9     	stur	x9, [x29, #-0x38]
    42c4: 5400054a     	b.ge	0x436c <.text+0x136c>
    42c8: f85c03a1     	ldur	x1, [x29, #-0x40]
    42cc: f9401ffb     	ldr	x27, [sp, #0x38]
    42d0: 5280011c     	mov	w28, #0x8               // =8
    42d4: 17fffe8b     	b	0x3d00 <.text+0xd00>
    42d8: 4b1c02b5     	sub	w21, w21, w28
    42dc: 710002bf     	cmp	w21, #0x0
    42e0: 54fffa4d     	b.le	0x4228 <.text+0x1228>
    42e4: 710022bf     	cmp	w21, #0x8
    42e8: 1a98b2bc     	csel	w28, w21, w24, lt
    42ec: 2a1c03e0     	mov	w0, w28
    42f0: 36f8009c     	tbz	w28, #0x1f, 0x4300 <.text+0x1300>
    42f4: d100e3a0     	sub	x0, x29, #0x38
    42f8: 52800101     	mov	w1, #0x8                // =8
    42fc: 9400069d     	bl	0x5d70 <__strlen_chk@plt>
    4300: f940026a     	ldr	x10, [x19]
    4304: f9400a69     	ldr	x9, [x19, #0x10]
    4308: 93407c08     	sxtw	x8, w0
    430c: 8b08014a     	add	x10, x10, x8
    4310: f100093f     	cmp	x9, #0x2
    4314: f900026a     	str	x10, [x19]
    4318: 54fffe03     	b.lo	0x42d8 <.text+0x12d8>
    431c: 5100052a     	sub	w10, w9, #0x1
    4320: f9400660     	ldr	x0, [x19, #0x8]
    4324: eb08013f     	cmp	x9, x8
    4328: 1a8a8108     	csel	w8, w8, w10, hi
    432c: 93407d18     	sxtw	x24, w8
    4330: d100e3a1     	sub	x1, x29, #0x38
    4334: aa1803e2     	mov	x2, x24
    4338: 9400074a     	bl	0x6060 <memcpy@plt>
    433c: f9400668     	ldr	x8, [x19, #0x8]
    4340: 8b180109     	add	x9, x8, x24
    4344: f9000669     	str	x9, [x19, #0x8]
    4348: 3838691f     	strb	wzr, [x8, x24]
    434c: f9400a68     	ldr	x8, [x19, #0x10]
    4350: cb180108     	sub	x8, x8, x24
    4354: 52800118     	mov	w24, #0x8               // =8
    4358: f9000a68     	str	x8, [x19, #0x10]
    435c: 17ffffdf     	b	0x42d8 <.text+0x12d8>
    4360: 4b1502f7     	sub	w23, w23, w21
    4364: 710002ff     	cmp	w23, #0x0
    4368: 54fffb0d     	b.le	0x42c8 <.text+0x12c8>
    436c: 710022ff     	cmp	w23, #0x8
    4370: 1a98b2f5     	csel	w21, w23, w24, lt
    4374: 2a1503e0     	mov	w0, w21
    4378: 36f800d5     	tbz	w21, #0x1f, 0x4390 <.text+0x1390>
    437c: d100e3a0     	sub	x0, x29, #0x38
    4380: 52800101     	mov	w1, #0x8                // =8
    4384: 9400067b     	bl	0x5d70 <__strlen_chk@plt>
    4388: f9400a68     	ldr	x8, [x19, #0x10]
    438c: 6f00e400     	movi	v0.2d, #0000000000000000
    4390: f940026a     	ldr	x10, [x19]
    4394: 93407c09     	sxtw	x9, w0
    4398: f100091f     	cmp	x8, #0x2
    439c: 8b09014a     	add	x10, x10, x9
    43a0: f900026a     	str	x10, [x19]
    43a4: 54fffde3     	b.lo	0x4360 <.text+0x1360>
    43a8: 5100050a     	sub	w10, w8, #0x1
    43ac: f9400660     	ldr	x0, [x19, #0x8]
    43b0: eb09011f     	cmp	x8, x9
    43b4: 1a8a8128     	csel	w8, w9, w10, hi
    43b8: 93407d16     	sxtw	x22, w8
    43bc: d100e3a1     	sub	x1, x29, #0x38
    43c0: aa1603e2     	mov	x2, x22
    43c4: 94000727     	bl	0x6060 <memcpy@plt>
    43c8: f9400668     	ldr	x8, [x19, #0x8]
    43cc: 6f00e400     	movi	v0.2d, #0000000000000000
    43d0: 8b160109     	add	x9, x8, x22
    43d4: f9000669     	str	x9, [x19, #0x8]
    43d8: 3836691f     	strb	wzr, [x8, x22]
    43dc: f9400a68     	ldr	x8, [x19, #0x10]
    43e0: cb160108     	sub	x8, x8, x22
    43e4: f9000a68     	str	x8, [x19, #0x10]
    43e8: 17ffffde     	b	0x4360 <.text+0x1360>
    43ec: b98019c8     	ldrsw	x8, [x14, #0x18]
    43f0: 36f803c8     	tbz	w8, #0x1f, 0x4468 <.text+0x1468>
    43f4: 11002109     	add	w9, w8, #0x8
    43f8: 3100211f     	cmn	w8, #0x8
    43fc: b90019c9     	str	w9, [x14, #0x18]
    4400: 5400034c     	b.gt	0x4468 <.text+0x1468>
    4404: f94005c9     	ldr	x9, [x14, #0x8]
    4408: 8b080128     	add	x8, x9, x8
    440c: 1400001a     	b	0x4474 <.text+0x1474>
    4410: d100c3b6     	sub	x22, x29, #0x30
    4414: 528004a8     	mov	w8, #0x25               // =37
    4418: 781d03a8     	sturh	w8, [x29, #-0x30]
    441c: 17ffff6f     	b	0x41d8 <.text+0x11d8>
    4420: b98019c8     	ldrsw	x8, [x14, #0x18]
    4424: 36f80348     	tbz	w8, #0x1f, 0x448c <.text+0x148c>
    4428: 11002109     	add	w9, w8, #0x8
    442c: 3100211f     	cmn	w8, #0x8
    4430: b90019c9     	str	w9, [x14, #0x18]
    4434: 540002cc     	b.gt	0x448c <.text+0x148c>
    4438: f94005c9     	ldr	x9, [x14, #0x8]
    443c: 8b080128     	add	x8, x9, x8
    4440: 14000016     	b	0x4498 <.text+0x1498>
    4444: b98019c8     	ldrsw	x8, [x14, #0x18]
    4448: 36f80328     	tbz	w8, #0x1f, 0x44ac <.text+0x14ac>
    444c: 11002109     	add	w9, w8, #0x8
    4450: 3100211f     	cmn	w8, #0x8
    4454: b90019c9     	str	w9, [x14, #0x18]
    4458: 540002ac     	b.gt	0x44ac <.text+0x14ac>
    445c: f94005c9     	ldr	x9, [x14, #0x8]
    4460: 8b080128     	add	x8, x9, x8
    4464: 14000015     	b	0x44b8 <.text+0x14b8>
    4468: f94001c8     	ldr	x8, [x14]
    446c: 91002109     	add	x9, x8, #0x8
    4470: f90001c9     	str	x9, [x14]
    4474: f9400108     	ldr	x8, [x8]
    4478: b0ffffe9     	adrp	x9, 0x1000
    447c: 9139a929     	add	x9, x9, #0xe6a
    4480: f100011f     	cmp	x8, #0x0
    4484: 9a880136     	csel	x22, x9, x8, eq
    4488: 17ffff54     	b	0x41d8 <.text+0x11d8>
    448c: f94001c8     	ldr	x8, [x14]
    4490: 91002109     	add	x9, x8, #0x8
    4494: f90001c9     	str	x9, [x14]
    4498: b9400108     	ldr	w8, [x8]
    449c: d100c3b6     	sub	x22, x29, #0x30
    44a0: 381d13bf     	sturb	wzr, [x29, #-0x2f]
    44a4: 381d03a8     	sturb	w8, [x29, #-0x30]
    44a8: 17ffff4c     	b	0x41d8 <.text+0x11d8>
    44ac: f94001c8     	ldr	x8, [x14]
    44b0: 91002109     	add	x9, x8, #0x8
    44b4: f90001c9     	str	x9, [x14]
    44b8: f94013ee     	ldr	x14, [sp, #0x20]
    44bc: f9400109     	ldr	x9, [x8]
    44c0: 528f0608     	mov	w8, #0x7830             // =30768
    44c4: 52800aed     	mov	w13, #0x57              // =87
    44c8: 781d03a8     	sturh	w8, [x29, #-0x30]
    44cc: aa0e03e8     	mov	x8, x14
    44d0: b4000249     	cbz	x9, 0x4518 <.text+0x1518>
    44d4: aa0e03ea     	mov	x10, x14
    44d8: 14000005     	b	0x44ec <.text+0x14ec>
    44dc: f1003d3f     	cmp	x9, #0xf
    44e0: aa0b03e9     	mov	x9, x11
    44e4: aa0803ea     	mov	x10, x8
    44e8: 54000189     	b.ls	0x4518 <.text+0x1518>
    44ec: eb14015f     	cmp	x10, x20
    44f0: d344fd2b     	lsr	x11, x9, #4
    44f4: aa1403e8     	mov	x8, x20
    44f8: 54ffff20     	b.eq	0x44dc <.text+0x14dc>
    44fc: 12000d28     	and	w8, w9, #0xf
    4500: 7100291f     	cmp	w8, #0xa
    4504: 1a8d320c     	csel	w12, w16, w13, lo
    4508: 0b080188     	add	w8, w12, w8
    450c: 38001548     	strb	w8, [x10], #0x1
    4510: aa0a03e8     	mov	x8, x10
    4514: 17fffff2     	b	0x44dc <.text+0x14dc>
    4518: eb0e011f     	cmp	x8, x14
    451c: 540000a1     	b.ne	0x4530 <.text+0x1530>
    4520: eb14011f     	cmp	x8, x20
    4524: 54000060     	b.eq	0x4530 <.text+0x1530>
    4528: f94007e8     	ldr	x8, [sp, #0x8]
    452c: 381d23b0     	sturb	w16, [x29, #-0x2e]
    4530: f9400fe9     	ldr	x9, [sp, #0x18]
    4534: 3900011f     	strb	wzr, [x8]
    4538: ab09011f     	cmn	x8, x9
    453c: 54ffe4c0     	b.eq	0x41d4 <.text+0x11d4>
    4540: f9400be9     	ldr	x9, [sp, #0x10]
    4544: 8b080129     	add	x9, x9, x8
    4548: 52800048     	mov	w8, #0x2                // =2
    454c: d100c3b6     	sub	x22, x29, #0x30
    4550: 38696aca     	ldrb	w10, [x22, x9]
    4554: 38686acb     	ldrb	w11, [x22, x8]
    4558: d100050c     	sub	x12, x8, #0x1
    455c: d1000d2d     	sub	x13, x9, #0x3
    4560: 38286aca     	strb	w10, [x22, x8]
    4564: 38296acb     	strb	w11, [x22, x9]
    4568: d1000529     	sub	x9, x9, #0x1
    456c: eb0d019f     	cmp	x12, x13
    4570: 91000508     	add	x8, x8, #0x1
    4574: 54fffec3     	b.lo	0x454c <.text+0x154c>
    4578: 17ffff18     	b	0x41d8 <.text+0x11d8>
    457c: f9400268     	ldr	x8, [x19]
    4580: f9400a69     	ldr	x9, [x19, #0x10]
    4584: 91000508     	add	x8, x8, #0x1
    4588: f100093f     	cmp	x9, #0x2
    458c: f9000268     	str	x8, [x19]
    4590: 54000163     	b.lo	0x45bc <.text+0x15bc>
    4594: f9400668     	ldr	x8, [x19, #0x8]
    4598: 528004a9     	mov	w9, #0x25               // =37
    459c: 39000109     	strb	w9, [x8]
    45a0: f9400668     	ldr	x8, [x19, #0x8]
    45a4: 91000509     	add	x9, x8, #0x1
    45a8: f9000669     	str	x9, [x19, #0x8]
    45ac: 3900051f     	strb	wzr, [x8, #0x1]
    45b0: f9400a68     	ldr	x8, [x19, #0x10]
    45b4: d1000508     	sub	x8, x8, #0x1
    45b8: f9000a68     	str	x8, [x19, #0x10]
    45bc: f94023e8     	ldr	x8, [sp, #0x40]
    45c0: f9401508     	ldr	x8, [x8, #0x28]
    45c4: f85f83a9     	ldur	x9, [x29, #-0x8]
    45c8: eb09011f     	cmp	x8, x9
    45cc: 540002a1     	b.ne	0x4620 <.text+0x1620>
    45d0: a94e4ff4     	ldp	x20, x19, [sp, #0xe0]
    45d4: a94d57f6     	ldp	x22, x21, [sp, #0xd0]
    45d8: a94c5ff8     	ldp	x24, x23, [sp, #0xc0]
    45dc: a94b67fa     	ldp	x26, x25, [sp, #0xb0]
    45e0: a94a6ffc     	ldp	x28, x27, [sp, #0xa0]
    45e4: a9497bfd     	ldp	x29, x30, [sp, #0x90]
    45e8: 9103c3ff     	add	sp, sp, #0xf0
    45ec: d65f03c0     	ret
    45f0: b0ffffe0     	adrp	x0, 0x1000
    45f4: b0ffffe2     	adrp	x2, 0x1000
    45f8: 91357c00     	add	x0, x0, #0xd5f
    45fc: 91392442     	add	x2, x2, #0xe49
    4600: 52803041     	mov	w1, #0x182              // =386
    4604: 9400069b     	bl	0x6070 <__assert@plt>
    4608: b0ffffe0     	adrp	x0, 0x1000
    460c: b0ffffe2     	adrp	x2, 0x1000
    4610: 91357c00     	add	x0, x0, #0xd5f
    4614: 91300042     	add	x2, x2, #0xc00
    4618: 52803161     	mov	w1, #0x18b              // =395
    461c: 94000695     	bl	0x6070 <__assert@plt>
    4620: 94000644     	bl	0x5f30 <__stack_chk_fail@plt>
    4624: d103c3ff     	sub	sp, sp, #0xf0
    4628: a90b7bfd     	stp	x29, x30, [sp, #0xb0]
    462c: f90063f7     	str	x23, [sp, #0xc0]
    4630: a90d57f6     	stp	x22, x21, [sp, #0xd0]
    4634: a90e4ff4     	stp	x20, x19, [sp, #0xe0]
    4638: 9102c3fd     	add	x29, sp, #0xb0
    463c: d53bd057     	mrs	x23, TPIDR_EL0
    4640: f94016e8     	ldr	x8, [x23, #0x28]
    4644: aa0203f3     	mov	x19, x2
    4648: aa0103f5     	mov	x21, x1
    464c: 2a0003f6     	mov	w22, w0
    4650: f81f83a8     	stur	x8, [x29, #-0x8]
    4654: b9002fe0     	str	w0, [sp, #0x2c]
    4658: 52810041     	mov	w1, #0x802              // =2050
    465c: 52800020     	mov	w0, #0x1                // =1
    4660: 72a00101     	movk	w1, #0x8, lsl #16
    4664: 2a1f03e2     	mov	w2, wzr
    4668: 94000686     	bl	0x6080 <socket@plt>
    466c: 3100041f     	cmn	w0, #0x1
    4670: 540000c1     	b.ne	0x4688 <.text+0x1688>
    4674: 94000607     	bl	0x5e90 <__errno@plt>
    4678: b9400008     	ldr	w8, [x0]
    467c: 7100111f     	cmp	w8, #0x4
    4680: 54fffec0     	b.eq	0x4658 <.text+0x1658>
    4684: 14000051     	b	0x47c8 <.text+0x17c8>
    4688: 9100c3e9     	add	x9, sp, #0x30
    468c: b0ffffe1     	adrp	x1, 0x1000
    4690: 2a0003f4     	mov	w20, w0
    4694: 6f00e400     	movi	v0.2d, #0000000000000000
    4698: 52800028     	mov	w8, #0x1                // =1
    469c: b27f0120     	orr	x0, x9, #0x2
    46a0: 91317421     	add	x1, x1, #0xc5d
    46a4: 52800d82     	mov	w2, #0x6c               // =108
    46a8: 52800d83     	mov	w3, #0x6c               // =108
    46ac: 3c88e3e0     	stur	q0, [sp, #0x8e]
    46b0: ad0383e0     	stp	q0, q0, [sp, #0x70]
    46b4: ad0283e0     	stp	q0, q0, [sp, #0x50]
    46b8: ad0183e0     	stp	q0, q0, [sp, #0x30]
    46bc: 790063e8     	strh	w8, [sp, #0x30]
    46c0: 94000674     	bl	0x6090 <__strlcpy_chk@plt>
    46c4: 9100c3e1     	add	x1, sp, #0x30
    46c8: 52800dc2     	mov	w2, #0x6e               // =110
    46cc: 2a1403e0     	mov	w0, w20
    46d0: 94000674     	bl	0x60a0 <connect@plt>
    46d4: 3100041f     	cmn	w0, #0x1
    46d8: 540000c1     	b.ne	0x46f0 <.text+0x16f0>
    46dc: 940005ed     	bl	0x5e90 <__errno@plt>
    46e0: b9400008     	ldr	w8, [x0]
    46e4: 7100111f     	cmp	w8, #0x4
    46e8: 54fffee0     	b.eq	0x46c4 <.text+0x16c4>
    46ec: 14000034     	b	0x47bc <.text+0x17bc>
    46f0: 35000660     	cbnz	w0, 0x47bc <.text+0x17bc>
    46f4: 71001edf     	cmp	w22, #0x7
    46f8: 1a9f17e9     	cset	w9, eq
    46fc: 9100a3e8     	add	x8, sp, #0x28
    4700: 52800036     	mov	w22, #0x1               // =1
    4704: 531e7529     	lsl	w9, w9, #2
    4708: 3900a3e9     	strb	w9, [sp, #0x28]
    470c: a9035be8     	stp	x8, x22, [sp, #0x30]
    4710: 94000668     	bl	0x60b0 <gettid@plt>
    4714: 79004be0     	strh	w0, [sp, #0x24]
    4718: 910093e8     	add	x8, sp, #0x24
    471c: 52800049     	mov	w9, #0x2                // =2
    4720: 910043e1     	add	x1, sp, #0x10
    4724: 2a1f03e0     	mov	w0, wzr
    4728: a90427e8     	stp	x8, x9, [sp, #0x40]
    472c: a9017fff     	stp	xzr, xzr, [sp, #0x10]
    4730: 94000664     	bl	0x60c0 <clock_gettime@plt>
    4734: 3dc007e0     	ldr	q0, [sp, #0x10]
    4738: 910023e8     	add	x8, sp, #0x8
    473c: 52800109     	mov	w9, #0x8                // =8
    4740: 9100b3ea     	add	x10, sp, #0x2c
    4744: 0ea12800     	xtn	v0.2s, v0.2d
    4748: 92800001     	mov	x1, #-0x1               // =-1
    474c: aa1503e0     	mov	x0, x21
    4750: a90527e8     	stp	x8, x9, [sp, #0x50]
    4754: a9065bea     	stp	x10, x22, [sp, #0x60]
    4758: fd0007e0     	str	d0, [sp, #0x8]
    475c: f9003bf5     	str	x21, [sp, #0x70]
    4760: 94000584     	bl	0x5d70 <__strlen_chk@plt>
    4764: 91000408     	add	x8, x0, #0x1
    4768: 92800001     	mov	x1, #-0x1               // =-1
    476c: aa1303e0     	mov	x0, x19
    4770: a907cfe8     	stp	x8, x19, [sp, #0x78]
    4774: 9400057f     	bl	0x5d70 <__strlen_chk@plt>
    4778: 91000408     	add	x8, x0, #0x1
    477c: f90047e8     	str	x8, [sp, #0x88]
    4780: 9100c3e1     	add	x1, sp, #0x30
    4784: 528000c2     	mov	w2, #0x6                // =6
    4788: 2a1403e0     	mov	w0, w20
    478c: 94000651     	bl	0x60d0 <writev@plt>
    4790: aa0003f3     	mov	x19, x0
    4794: b100041f     	cmn	x0, #0x1
    4798: 540000a1     	b.ne	0x47ac <.text+0x17ac>
    479c: 940005bd     	bl	0x5e90 <__errno@plt>
    47a0: b9400008     	ldr	w8, [x0]
    47a4: 7100111f     	cmp	w8, #0x4
    47a8: 54fffec0     	b.eq	0x4780 <.text+0x1780>
    47ac: 52800720     	mov	w0, #0x39               // =57
    47b0: 2a1403e1     	mov	w1, w20
    47b4: 9400064b     	bl	0x60e0 <syscall@plt>
    47b8: 14000020     	b	0x4838 <.text+0x1838>
    47bc: 52800720     	mov	w0, #0x39               // =57
    47c0: 2a1403e1     	mov	w1, w20
    47c4: 94000647     	bl	0x60e0 <syscall@plt>
    47c8: 92800001     	mov	x1, #-0x1               // =-1
    47cc: aa1503e0     	mov	x0, x21
    47d0: f9001bf5     	str	x21, [sp, #0x30]
    47d4: 94000567     	bl	0x5d70 <__strlen_chk@plt>
    47d8: b0ffffe8     	adrp	x8, 0x1000
    47dc: 91375d08     	add	x8, x8, #0xdd7
    47e0: 52800049     	mov	w9, #0x2                // =2
    47e4: a903a3e0     	stp	x0, x8, [sp, #0x38]
    47e8: 92800001     	mov	x1, #-0x1               // =-1
    47ec: aa1303e0     	mov	x0, x19
    47f0: a904cfe9     	stp	x9, x19, [sp, #0x48]
    47f4: 9400055f     	bl	0x5d70 <__strlen_chk@plt>
    47f8: b0ffffe8     	adrp	x8, 0x1000
    47fc: 91388508     	add	x8, x8, #0xe21
    4800: 52800029     	mov	w9, #0x1                // =1
    4804: a905a3e0     	stp	x0, x8, [sp, #0x58]
    4808: f90037e9     	str	x9, [sp, #0x68]
    480c: 9100c3e1     	add	x1, sp, #0x30
    4810: 52800040     	mov	w0, #0x2                // =2
    4814: 52800082     	mov	w2, #0x4                // =4
    4818: 9400062e     	bl	0x60d0 <writev@plt>
    481c: aa0003f3     	mov	x19, x0
    4820: b100041f     	cmn	x0, #0x1
    4824: 540000a1     	b.ne	0x4838 <.text+0x1838>
    4828: 9400059a     	bl	0x5e90 <__errno@plt>
    482c: b9400008     	ldr	w8, [x0]
    4830: 7100111f     	cmp	w8, #0x4
    4834: 54fffec0     	b.eq	0x480c <.text+0x180c>
    4838: f94016e8     	ldr	x8, [x23, #0x28]
    483c: f85f83a9     	ldur	x9, [x29, #-0x8]
    4840: eb09011f     	cmp	x8, x9
    4844: 54000101     	b.ne	0x4864 <.text+0x1864>
    4848: 2a1303e0     	mov	w0, w19
    484c: a94e4ff4     	ldp	x20, x19, [sp, #0xe0]
    4850: a94d57f6     	ldp	x22, x21, [sp, #0xd0]
    4854: f94063f7     	ldr	x23, [sp, #0xc0]
    4858: a94b7bfd     	ldp	x29, x30, [sp, #0xb0]
    485c: 9103c3ff     	add	sp, sp, #0xf0
    4860: d65f03c0     	ret
    4864: 940005b3     	bl	0x5f30 <__stack_chk_fail@plt>
    4868: a9ba7bfd     	stp	x29, x30, [sp, #-0x60]!
    486c: f9000bfc     	str	x28, [sp, #0x10]
    4870: a90267fa     	stp	x26, x25, [sp, #0x20]
    4874: a9035ff8     	stp	x24, x23, [sp, #0x30]
    4878: a90457f6     	stp	x22, x21, [sp, #0x40]
    487c: a9054ff4     	stp	x20, x19, [sp, #0x50]
    4880: 910003fd     	mov	x29, sp
    4884: d114c3ff     	sub	sp, sp, #0x530
    4888: a90893e3     	stp	x3, x4, [sp, #0x88]
    488c: a9099be5     	stp	x5, x6, [sp, #0x98]
    4890: f90057e7     	str	x7, [sp, #0xa8]
    4894: ad008be1     	stp	q1, q2, [sp, #0x10]
    4898: ad0193e3     	stp	q3, q4, [sp, #0x30]
    489c: 3d8003e0     	str	q0, [sp]
    48a0: ad029be5     	stp	q5, q6, [sp, #0x50]
    48a4: 3d801fe7     	str	q7, [sp, #0x70]
    48a8: d53bd057     	mrs	x23, TPIDR_EL0
    48ac: f94016e8     	ldr	x8, [x23, #0x28]
    48b0: 910223ea     	add	x10, sp, #0x88
    48b4: 910003eb     	mov	x11, sp
    48b8: 6f00e400     	movi	v0.2d, #0000000000000000
    48bc: f81f83a8     	stur	x8, [x29, #-0x8]
    48c0: 928004e8     	mov	x8, #-0x28              // =-40
    48c4: 910183a9     	add	x9, x29, #0x60
    48c8: f2dff008     	movk	x8, #0xff80, lsl #32
    48cc: 9100a14a     	add	x10, x10, #0x28
    48d0: 9102016b     	add	x11, x11, #0x80
    48d4: ad0683e0     	stp	q0, q0, [sp, #0xd0]
    48d8: a90d2be9     	stp	x9, x10, [sp, #0xd0]
    48dc: a90e23eb     	stp	x11, x8, [sp, #0xe0]
    48e0: ad4687e0     	ldp	q0, q1, [sp, #0xd0]
    48e4: aa0203f5     	mov	x21, x2
    48e8: aa0103f3     	mov	x19, x1
    48ec: 2a0003f4     	mov	w20, w0
    48f0: ad0587e0     	stp	q0, q1, [sp, #0xb0]
    48f4: 94000567     	bl	0x5e90 <__errno@plt>
    48f8: b9400018     	ldr	w24, [x0]
    48fc: aa0003f6     	mov	x22, x0
    4900: 9104a3e0     	add	x0, sp, #0x128
    4904: 52808002     	mov	w2, #0x400              // =1024
    4908: 2a1f03e1     	mov	w1, wzr
    490c: 52808019     	mov	w25, #0x400             // =1024
    4910: 9104a3fa     	add	x26, sp, #0x128
    4914: 94000557     	bl	0x5e70 <memset@plt>
    4918: ad4587e0     	ldp	q0, q1, [sp, #0xb0]
    491c: 910443e0     	add	x0, sp, #0x110
    4920: 9103c3e2     	add	x2, sp, #0xf0
    4924: aa1503e1     	mov	x1, x21
    4928: a9116bff     	stp	xzr, x26, [sp, #0x110]
    492c: f90093f9     	str	x25, [sp, #0x120]
    4930: 3904a3ff     	strb	wzr, [sp, #0x128]
    4934: ad0787e0     	stp	q0, q1, [sp, #0xf0]
    4938: 97fffcd6     	bl	0x3c90 <.text+0xc90>
    493c: 9104a3e2     	add	x2, sp, #0x128
    4940: 2a1403e0     	mov	w0, w20
    4944: aa1303e1     	mov	x1, x19
    4948: 97ffff37     	bl	0x4624 <.text+0x1624>
    494c: b90002d8     	str	w24, [x22]
    4950: f94016e8     	ldr	x8, [x23, #0x28]
    4954: f85f83a9     	ldur	x9, [x29, #-0x8]
    4958: eb09011f     	cmp	x8, x9
    495c: 54000121     	b.ne	0x4980 <.text+0x1980>
    4960: 9114c3ff     	add	sp, sp, #0x530
    4964: a9454ff4     	ldp	x20, x19, [sp, #0x50]
    4968: a94457f6     	ldp	x22, x21, [sp, #0x40]
    496c: a9435ff8     	ldp	x24, x23, [sp, #0x30]
    4970: a94267fa     	ldp	x26, x25, [sp, #0x20]
    4974: f9400bfc     	ldr	x28, [sp, #0x10]
    4978: a8c67bfd     	ldp	x29, x30, [sp], #0x60
    497c: d65f03c0     	ret
    4980: 9400056c     	bl	0x5f30 <__stack_chk_fail@plt>
    4984: a9ba7bfd     	stp	x29, x30, [sp, #-0x60]!
    4988: a9016ffc     	stp	x28, x27, [sp, #0x10]
    498c: a90267fa     	stp	x26, x25, [sp, #0x20]
    4990: a9035ff8     	stp	x24, x23, [sp, #0x30]
    4994: a90457f6     	stp	x22, x21, [sp, #0x40]
    4998: a9054ff4     	stp	x20, x19, [sp, #0x50]
    499c: 910003fd     	mov	x29, sp
    49a0: d11183ff     	sub	sp, sp, #0x460
    49a4: d53bd057     	mrs	x23, TPIDR_EL0
    49a8: f94016e8     	ldr	x8, [x23, #0x28]
    49ac: aa0203f4     	mov	x20, x2
    49b0: aa0103f3     	mov	x19, x1
    49b4: aa0003f5     	mov	x21, x0
    49b8: 910163e0     	add	x0, sp, #0x58
    49bc: 52808002     	mov	w2, #0x400              // =1024
    49c0: 2a1f03e1     	mov	w1, wzr
    49c4: f81f83a8     	stur	x8, [x29, #-0x8]
    49c8: 52808016     	mov	w22, #0x400             // =1024
    49cc: 910163f8     	add	x24, sp, #0x58
    49d0: 94000528     	bl	0x5e70 <memset@plt>
    49d4: a90263ff     	stp	xzr, x24, [sp, #0x20]
    49d8: f9001bf6     	str	x22, [sp, #0x30]
    49dc: 390163ff     	strb	wzr, [sp, #0x58]
    49e0: b4000535     	cbz	x21, 0x4a84 <.text+0x1a84>
    49e4: 92800001     	mov	x1, #-0x1               // =-1
    49e8: aa1503e0     	mov	x0, x21
    49ec: 940004e1     	bl	0x5d70 <__strlen_chk@plt>
    49f0: 36f80080     	tbz	w0, #0x1f, 0x4a00 <.text+0x1a00>
    49f4: 92800001     	mov	x1, #-0x1               // =-1
    49f8: aa1503e0     	mov	x0, x21
    49fc: 940004dd     	bl	0x5d70 <__strlen_chk@plt>
    4a00: 710ffc1f     	cmp	w0, #0x3ff
    4a04: 52807fe8     	mov	w8, #0x3ff              // =1023
    4a08: 1a883016     	csel	w22, w0, w8, lo
    4a0c: 93407c1a     	sxtw	x26, w0
    4a10: 910163e0     	add	x0, sp, #0x58
    4a14: 52808003     	mov	w3, #0x400              // =1024
    4a18: aa1503e1     	mov	x1, x21
    4a1c: aa1603e2     	mov	x2, x22
    4a20: 52808019     	mov	w25, #0x400             // =1024
    4a24: 910163fb     	add	x27, sp, #0x58
    4a28: 940005b2     	bl	0x60f0 <__memcpy_chk@plt>
    4a2c: 8b160375     	add	x21, x27, x22
    4a30: cb160339     	sub	x25, x25, x22
    4a34: 91000b48     	add	x8, x26, #0x2
    4a38: 710ffadf     	cmp	w22, #0x3fe
    4a3c: 390002bf     	strb	wzr, [x21]
    4a40: a902e7f5     	stp	x21, x25, [sp, #0x28]
    4a44: f90013e8     	str	x8, [sp, #0x20]
    4a48: 540001e8     	b.hi	0x4a84 <.text+0x1a84>
    4a4c: 51000728     	sub	w8, w25, #0x1
    4a50: f1000b3f     	cmp	x25, #0x2
    4a54: 93407d08     	sxtw	x8, w8
    4a58: 52800049     	mov	w9, #0x2                // =2
    4a5c: 9a890116     	csel	x22, x8, x9, eq
    4a60: b0ffffe1     	adrp	x1, 0x1000
    4a64: 91375c21     	add	x1, x1, #0xdd7
    4a68: aa1503e0     	mov	x0, x21
    4a6c: aa1603e2     	mov	x2, x22
    4a70: 9400057c     	bl	0x6060 <memcpy@plt>
    4a74: 8b1602a8     	add	x8, x21, x22
    4a78: cb160329     	sub	x9, x25, x22
    4a7c: 38366abf     	strb	wzr, [x21, x22]
    4a80: a902a7e8     	stp	x8, x9, [sp, #0x28]
    4a84: ad400281     	ldp	q1, q0, [x20]
    4a88: 910083e0     	add	x0, sp, #0x20
    4a8c: 910003e2     	mov	x2, sp
    4a90: aa1303e1     	mov	x1, x19
    4a94: ad0003e1     	stp	q1, q0, [sp]
    4a98: 97fffc7e     	bl	0x3c90 <.text+0xc90>
    4a9c: 910163e0     	add	x0, sp, #0x58
    4aa0: 52808001     	mov	w1, #0x400              // =1024
    4aa4: f9001ff8     	str	x24, [sp, #0x38]
    4aa8: 940004b2     	bl	0x5d70 <__strlen_chk@plt>
    4aac: b0ffffe8     	adrp	x8, 0x1000
    4ab0: 91388508     	add	x8, x8, #0xe21
    4ab4: 52800029     	mov	w9, #0x1                // =1
    4ab8: a90423e0     	stp	x0, x8, [sp, #0x40]
    4abc: f9002be9     	str	x9, [sp, #0x50]
    4ac0: 9100e3e1     	add	x1, sp, #0x38
    4ac4: 52800040     	mov	w0, #0x2                // =2
    4ac8: 52800042     	mov	w2, #0x2                // =2
    4acc: 94000581     	bl	0x60d0 <writev@plt>
    4ad0: b100041f     	cmn	x0, #0x1
    4ad4: 540000a1     	b.ne	0x4ae8 <.text+0x1ae8>
    4ad8: 940004ee     	bl	0x5e90 <__errno@plt>
    4adc: b9400008     	ldr	w8, [x0]
    4ae0: 7100111f     	cmp	w8, #0x4
    4ae4: 54fffee0     	b.eq	0x4ac0 <.text+0x1ac0>
    4ae8: b0ffffe1     	adrp	x1, 0x1000
    4aec: 9131bc21     	add	x1, x1, #0xc6f
    4af0: 910163e2     	add	x2, sp, #0x58
    4af4: 528000e0     	mov	w0, #0x7                // =7
    4af8: 97fffecb     	bl	0x4624 <.text+0x1624>
    4afc: 910163e0     	add	x0, sp, #0x58
    4b00: 94000580     	bl	0x6100 <android_set_abort_message@plt>
    4b04: f94016e8     	ldr	x8, [x23, #0x28]
    4b08: f85f83a9     	ldur	x9, [x29, #-0x8]
    4b0c: eb09011f     	cmp	x8, x9
    4b10: 54000121     	b.ne	0x4b34 <.text+0x1b34>
    4b14: 911183ff     	add	sp, sp, #0x460
    4b18: a9454ff4     	ldp	x20, x19, [sp, #0x50]
    4b1c: a94457f6     	ldp	x22, x21, [sp, #0x40]
    4b20: a9435ff8     	ldp	x24, x23, [sp, #0x30]
    4b24: a94267fa     	ldp	x26, x25, [sp, #0x20]
    4b28: a9416ffc     	ldp	x28, x27, [sp, #0x10]
    4b2c: a8c67bfd     	ldp	x29, x30, [sp], #0x60
    4b30: d65f03c0     	ret
    4b34: 940004ff     	bl	0x5f30 <__stack_chk_fail@plt>
    4b38: d104c3ff     	sub	sp, sp, #0x130
    4b3c: a9117bfd     	stp	x29, x30, [sp, #0x110]
    4b40: a9124ffc     	stp	x28, x19, [sp, #0x120]
    4b44: 910443fd     	add	x29, sp, #0x110
    4b48: a9088be1     	stp	x1, x2, [sp, #0x88]
    4b4c: a90993e3     	stp	x3, x4, [sp, #0x98]
    4b50: a90a9be5     	stp	x5, x6, [sp, #0xa8]
    4b54: f9005fe7     	str	x7, [sp, #0xb8]
    4b58: ad0007e0     	stp	q0, q1, [sp]
    4b5c: ad010fe2     	stp	q2, q3, [sp, #0x20]
    4b60: ad0217e4     	stp	q4, q5, [sp, #0x40]
    4b64: ad031fe6     	stp	q6, q7, [sp, #0x60]
    4b68: d53bd053     	mrs	x19, TPIDR_EL0
    4b6c: f940166c     	ldr	x12, [x19, #0x28]
    4b70: 910223ea     	add	x10, sp, #0x88
    4b74: 910003eb     	mov	x11, sp
    4b78: 928006ed     	mov	x13, #-0x38             // =-56
    4b7c: 6f00e400     	movi	v0.2d, #0000000000000000
    4b80: 910083a9     	add	x9, x29, #0x20
    4b84: f2dff00d     	movk	x13, #0xff80, lsl #32
    4b88: 9100e14a     	add	x10, x10, #0x38
    4b8c: 9102016b     	add	x11, x11, #0x80
    4b90: f81f83ac     	stur	x12, [x29, #-0x8]
    4b94: ad3e83a0     	stp	q0, q0, [x29, #-0x30]
    4b98: a93d2ba9     	stp	x9, x10, [x29, #-0x30]
    4b9c: a93e37ab     	stp	x11, x13, [x29, #-0x20]
    4ba0: ad7e87a0     	ldp	q0, q1, [x29, #-0x30]
    4ba4: aa0003e8     	mov	x8, x0
    4ba8: d10143a2     	sub	x2, x29, #0x50
    4bac: aa1f03e0     	mov	x0, xzr
    4bb0: aa0803e1     	mov	x1, x8
    4bb4: ad3d87a0     	stp	q0, q1, [x29, #-0x50]
    4bb8: 97ffff73     	bl	0x4984 <.text+0x1984>
    4bbc: f9401668     	ldr	x8, [x19, #0x28]
    4bc0: f85f83a9     	ldur	x9, [x29, #-0x8]
    4bc4: eb09011f     	cmp	x8, x9
    4bc8: 540000a1     	b.ne	0x4bdc <.text+0x1bdc>
    4bcc: a9524ffc     	ldp	x28, x19, [sp, #0x120]
    4bd0: a9517bfd     	ldp	x29, x30, [sp, #0x110]
    4bd4: 9104c3ff     	add	sp, sp, #0x130
    4bd8: d65f03c0     	ret
    4bdc: 940004d5     	bl	0x5f30 <__stack_chk_fail@plt>
    4be0: d10103ff     	sub	sp, sp, #0x40
    4be4: a9027bfd     	stp	x29, x30, [sp, #0x20]
    4be8: f9001bf3     	str	x19, [sp, #0x30]
    4bec: 910083fd     	add	x29, sp, #0x20
    4bf0: d53bd053     	mrs	x19, TPIDR_EL0
    4bf4: f9401668     	ldr	x8, [x19, #0x28]
    4bf8: b0000029     	adrp	x9, 0x9000
    4bfc: 9131c129     	add	x9, x9, #0xc70
    4c00: 91002120     	add	x0, x9, #0x8
    4c04: f81f83a8     	stur	x8, [x29, #-0x8]
    4c08: c8dffc08     	ldar	x8, [x0]
    4c0c: b100051f     	cmn	x8, #0x1
    4c10: 54000100     	b.eq	0x4c30 <.text+0x1c30>
    4c14: b0000002     	adrp	x2, 0x5000 <.text+0x2000>
    4c18: 910003e8     	mov	x8, sp
    4c1c: 910043e9     	add	x9, sp, #0x10
    4c20: 912b1042     	add	x2, x2, #0xac4
    4c24: 910023e1     	add	x1, sp, #0x8
    4c28: a900a3e9     	stp	x9, x8, [sp, #0x8]
    4c2c: 94000539     	bl	0x6110 <_ZNSt3__111__call_onceERVmPvPFvS2_E@plt>
    4c30: f9401668     	ldr	x8, [x19, #0x28]
    4c34: f85f83a9     	ldur	x9, [x29, #-0x8]
    4c38: eb09011f     	cmp	x8, x9
    4c3c: 540000a1     	b.ne	0x4c50 <.text+0x1c50>
    4c40: f9401bf3     	ldr	x19, [sp, #0x30]
    4c44: a9427bfd     	ldp	x29, x30, [sp, #0x20]
    4c48: 910103ff     	add	sp, sp, #0x40
    4c4c: d65f03c0     	ret
    4c50: 940004b8     	bl	0x5f30 <__stack_chk_fail@plt>
    4c54: d10243ff     	sub	sp, sp, #0x90
    4c58: a9037bfd     	stp	x29, x30, [sp, #0x30]
    4c5c: a9046ffc     	stp	x28, x27, [sp, #0x40]
    4c60: a90567fa     	stp	x26, x25, [sp, #0x50]
    4c64: a9065ff8     	stp	x24, x23, [sp, #0x60]
    4c68: a90757f6     	stp	x22, x21, [sp, #0x70]
    4c6c: a9084ff4     	stp	x20, x19, [sp, #0x80]
    4c70: 9100c3fd     	add	x29, sp, #0x30
    4c74: d53bd059     	mrs	x25, TPIDR_EL0
    4c78: f9401728     	ldr	x8, [x25, #0x28]
    4c7c: b000003a     	adrp	x26, 0x9000
    4c80: 9131c35a     	add	x26, x26, #0xc70
    4c84: aa0203f4     	mov	x20, x2
    4c88: f81f83a8     	stur	x8, [x29, #-0x8]
    4c8c: 9100c348     	add	x8, x26, #0x30
    4c90: c8dffd09     	ldar	x9, [x8]
    4c94: aa0103f5     	mov	x21, x1
    4c98: 2a0003f3     	mov	w19, w0
    4c9c: b100053f     	cmn	x9, #0x1
    4ca0: 54000140     	b.eq	0x4cc8 <.text+0x1cc8>
    4ca4: b0000002     	adrp	x2, 0x5000 <.text+0x2000>
    4ca8: 910063e9     	add	x9, sp, #0x18
    4cac: d10043aa     	sub	x10, x29, #0x10
    4cb0: 912a1042     	add	x2, x2, #0xa84
    4cb4: 910043e1     	add	x1, sp, #0x10
    4cb8: aa0803e0     	mov	x0, x8
    4cbc: f81f03a9     	stur	x9, [x29, #-0x10]
    4cc0: f9000bea     	str	x10, [sp, #0x10]
    4cc4: 94000513     	bl	0x6110 <_ZNSt3__111__call_onceERVmPvPFvS2_E@plt>
    4cc8: b9400740     	ldr	w0, [x26, #0x4]
    4ccc: 94000515     	bl	0x6120 <pthread_getspecific@plt>
    4cd0: 90000038     	adrp	x24, 0x8000
    4cd4: 91170318     	add	x24, x24, #0x5c0
    4cd8: b4000840     	cbz	x0, 0x4de0 <.text+0x1de0>
    4cdc: 52800b08     	mov	w8, #0x58               // =88
    4ce0: 9b28627b     	smaddl	x27, w19, w8, x24
    4ce4: b9400b7c     	ldr	w28, [x27, #0x8]
    4ce8: d10043a0     	sub	x0, x29, #0x10
    4cec: f81f03bf     	stur	xzr, [x29, #-0x10]
    4cf0: 9100a296     	add	x22, x20, #0x28
    4cf4: 91006377     	add	x23, x27, #0x18
    4cf8: 9400050e     	bl	0x6130 <sigemptyset@plt>
    4cfc: aa1f03f8     	mov	x24, xzr
    4d00: 14000007     	b	0x4d1c <.text+0x1d1c>
    4d04: d10043a0     	sub	x0, x29, #0x10
    4d08: 2a1803e1     	mov	w1, w24
    4d0c: 9400050d     	bl	0x6140 <sigaddset@plt>
    4d10: 91000718     	add	x24, x24, #0x1
    4d14: f101031f     	cmp	x24, #0x40
    4d18: 54000180     	b.eq	0x4d48 <.text+0x1d48>
    4d1c: aa1603e0     	mov	x0, x22
    4d20: 2a1803e1     	mov	w1, w24
    4d24: 9400050b     	bl	0x6150 <sigismember@plt>
    4d28: 7100041f     	cmp	w0, #0x1
    4d2c: 54fffec0     	b.eq	0x4d04 <.text+0x1d04>
    4d30: aa1703e0     	mov	x0, x23
    4d34: 2a1803e1     	mov	w1, w24
    4d38: 94000506     	bl	0x6150 <sigismember@plt>
    4d3c: 7100041f     	cmp	w0, #0x1
    4d40: 54fffe20     	b.eq	0x4d04 <.text+0x1d04>
    4d44: 17fffff3     	b	0x4d10 <.text+0x1d10>
    4d48: 37f0009c     	tbnz	w28, #0x1e, 0x4d58 <.text+0x1d58>
    4d4c: d10043a0     	sub	x0, x29, #0x10
    4d50: 2a1303e1     	mov	w1, w19
    4d54: 940004fb     	bl	0x6140 <sigaddset@plt>
    4d58: f9400f48     	ldr	x8, [x26, #0x18]
    4d5c: d10043a1     	sub	x1, x29, #0x10
    4d60: 52800040     	mov	w0, #0x2                // =2
    4d64: aa1f03e2     	mov	x2, xzr
    4d68: d63f0100     	blr	x8
    4d6c: 3710019c     	tbnz	w28, #0x2, 0x4d9c <.text+0x1d9c>
    4d70: f9400b68     	ldr	x8, [x27, #0x10]
    4d74: f100051f     	cmp	x8, #0x1
    4d78: 540001c0     	b.eq	0x4db0 <.text+0x1db0>
    4d7c: b4001748     	cbz	x8, 0x5064 <.text+0x2064>
    4d80: 2a1303e0     	mov	w0, w19
    4d84: d63f0100     	blr	x8
    4d88: f9401728     	ldr	x8, [x25, #0x28]
    4d8c: f85f83a9     	ldur	x9, [x29, #-0x8]
    4d90: eb09011f     	cmp	x8, x9
    4d94: 54000160     	b.eq	0x4dc0 <.text+0x1dc0>
    4d98: 1400009c     	b	0x5008 <.text+0x2008>
    4d9c: f9400b68     	ldr	x8, [x27, #0x10]
    4da0: 2a1303e0     	mov	w0, w19
    4da4: aa1503e1     	mov	x1, x21
    4da8: aa1403e2     	mov	x2, x20
    4dac: d63f0100     	blr	x8
    4db0: f9401728     	ldr	x8, [x25, #0x28]
    4db4: f85f83a9     	ldur	x9, [x29, #-0x8]
    4db8: eb09011f     	cmp	x8, x9
    4dbc: 54001261     	b.ne	0x5008 <.text+0x2008>
    4dc0: a9484ff4     	ldp	x20, x19, [sp, #0x80]
    4dc4: a94757f6     	ldp	x22, x21, [sp, #0x70]
    4dc8: a9465ff8     	ldp	x24, x23, [sp, #0x60]
    4dcc: a94567fa     	ldp	x26, x25, [sp, #0x50]
    4dd0: a9446ffc     	ldp	x28, x27, [sp, #0x40]
    4dd4: a9437bfd     	ldp	x29, x30, [sp, #0x30]
    4dd8: 910243ff     	add	sp, sp, #0x90
    4ddc: d65f03c0     	ret
    4de0: 52800b08     	mov	w8, #0x58               // =88
    4de4: 9b28627b     	smaddl	x27, w19, w8, x24
    4de8: f9401768     	ldr	x8, [x27, #0x28]
    4dec: b4fff788     	cbz	x8, 0x4cdc <.text+0x1cdc>
    4df0: f9400b48     	ldr	x8, [x26, #0x10]
    4df4: f9401f7c     	ldr	x28, [x27, #0x38]
    4df8: 9100c361     	add	x1, x27, #0x30
    4dfc: 910063e2     	add	x2, sp, #0x18
    4e00: 52800040     	mov	w0, #0x2                // =2
    4e04: f9000fff     	str	xzr, [sp, #0x18]
    4e08: d63f0100     	blr	x8
    4e0c: 9100c340     	add	x0, x26, #0x30
    4e10: c8dffc08     	ldar	x8, [x0]
    4e14: b100051f     	cmn	x8, #0x1
    4e18: 54000120     	b.eq	0x4e3c <.text+0x1e3c>
    4e1c: b0000002     	adrp	x2, 0x5000 <.text+0x2000>
    4e20: 910023e8     	add	x8, sp, #0x8
    4e24: d10043a9     	sub	x9, x29, #0x10
    4e28: 912a1042     	add	x2, x2, #0xa84
    4e2c: 910043e1     	add	x1, sp, #0x10
    4e30: f81f03a8     	stur	x8, [x29, #-0x10]
    4e34: f9000be9     	str	x9, [sp, #0x10]
    4e38: 940004b6     	bl	0x6110 <_ZNSt3__111__call_onceERVmPvPFvS2_E@plt>
    4e3c: b9400740     	ldr	w0, [x26, #0x4]
    4e40: 940004b8     	bl	0x6120 <pthread_getspecific@plt>
    4e44: f100001f     	cmp	x0, #0x0
    4e48: aa0003f7     	mov	x23, x0
    4e4c: 1a9f07f6     	cset	w22, ne
    4e50: 3700021c     	tbnz	w28, #0x0, 0x4e90 <.text+0x1e90>
    4e54: 9100c340     	add	x0, x26, #0x30
    4e58: c8dffc08     	ldar	x8, [x0]
    4e5c: b100051f     	cmn	x8, #0x1
    4e60: 54000120     	b.eq	0x4e84 <.text+0x1e84>
    4e64: b0000002     	adrp	x2, 0x5000 <.text+0x2000>
    4e68: 910023e8     	add	x8, sp, #0x8
    4e6c: d10043a9     	sub	x9, x29, #0x10
    4e70: 912a1042     	add	x2, x2, #0xa84
    4e74: 910043e1     	add	x1, sp, #0x10
    4e78: f81f03a8     	stur	x8, [x29, #-0x10]
    4e7c: f9000be9     	str	x9, [sp, #0x10]
    4e80: 940004a4     	bl	0x6110 <_ZNSt3__111__call_onceERVmPvPFvS2_E@plt>
    4e84: b9400740     	ldr	w0, [x26, #0x4]
    4e88: 52800021     	mov	w1, #0x1                // =1
    4e8c: 940004b5     	bl	0x6160 <pthread_setspecific@plt>
    4e90: f9401768     	ldr	x8, [x27, #0x28]
    4e94: 2a1303e0     	mov	w0, w19
    4e98: aa1503e1     	mov	x1, x21
    4e9c: aa1403e2     	mov	x2, x20
    4ea0: d63f0100     	blr	x8
    4ea4: 370008c0     	tbnz	w0, #0x0, 0x4fbc <.text+0x1fbc>
    4ea8: f9400b48     	ldr	x8, [x26, #0x10]
    4eac: 910063e1     	add	x1, sp, #0x18
    4eb0: 52800040     	mov	w0, #0x2                // =2
    4eb4: aa1f03e2     	mov	x2, xzr
    4eb8: d63f0100     	blr	x8
    4ebc: 9100c340     	add	x0, x26, #0x30
    4ec0: c8dffc08     	ldar	x8, [x0]
    4ec4: b100051f     	cmn	x8, #0x1
    4ec8: 54000120     	b.eq	0x4eec <.text+0x1eec>
    4ecc: b0000002     	adrp	x2, 0x5000 <.text+0x2000>
    4ed0: 910023e8     	add	x8, sp, #0x8
    4ed4: d10043a9     	sub	x9, x29, #0x10
    4ed8: 912a1042     	add	x2, x2, #0xa84
    4edc: 910043e1     	add	x1, sp, #0x10
    4ee0: f81f03a8     	stur	x8, [x29, #-0x10]
    4ee4: f9000be9     	str	x9, [sp, #0x10]
    4ee8: 9400048a     	bl	0x6110 <_ZNSt3__111__call_onceERVmPvPFvS2_E@plt>
    4eec: b9400740     	ldr	w0, [x26, #0x4]
    4ef0: f10002ff     	cmp	x23, #0x0
    4ef4: 1a9f07e1     	cset	w1, ne
    4ef8: 9400049a     	bl	0x6160 <pthread_setspecific@plt>
    4efc: f9402368     	ldr	x8, [x27, #0x40]
    4f00: b4ffeee8     	cbz	x8, 0x4cdc <.text+0x1cdc>
    4f04: f9400b48     	ldr	x8, [x26, #0x10]
    4f08: f9402b7c     	ldr	x28, [x27, #0x50]
    4f0c: 91012361     	add	x1, x27, #0x48
    4f10: 910063e2     	add	x2, sp, #0x18
    4f14: 52800040     	mov	w0, #0x2                // =2
    4f18: f9000fff     	str	xzr, [sp, #0x18]
    4f1c: d63f0100     	blr	x8
    4f20: 9100c340     	add	x0, x26, #0x30
    4f24: c8dffc08     	ldar	x8, [x0]
    4f28: b100051f     	cmn	x8, #0x1
    4f2c: 54000120     	b.eq	0x4f50 <.text+0x1f50>
    4f30: b0000002     	adrp	x2, 0x5000 <.text+0x2000>
    4f34: 910023e8     	add	x8, sp, #0x8
    4f38: d10043a9     	sub	x9, x29, #0x10
    4f3c: 912a1042     	add	x2, x2, #0xa84
    4f40: 910043e1     	add	x1, sp, #0x10
    4f44: f81f03a8     	stur	x8, [x29, #-0x10]
    4f48: f9000be9     	str	x9, [sp, #0x10]
    4f4c: 94000471     	bl	0x6110 <_ZNSt3__111__call_onceERVmPvPFvS2_E@plt>
    4f50: b9400740     	ldr	w0, [x26, #0x4]
    4f54: 94000473     	bl	0x6120 <pthread_getspecific@plt>
    4f58: f100001f     	cmp	x0, #0x0
    4f5c: aa0003f7     	mov	x23, x0
    4f60: 1a9f07f6     	cset	w22, ne
    4f64: 3700021c     	tbnz	w28, #0x0, 0x4fa4 <.text+0x1fa4>
    4f68: 9100c340     	add	x0, x26, #0x30
    4f6c: c8dffc08     	ldar	x8, [x0]
    4f70: b100051f     	cmn	x8, #0x1
    4f74: 54000120     	b.eq	0x4f98 <.text+0x1f98>
    4f78: b0000002     	adrp	x2, 0x5000 <.text+0x2000>
    4f7c: 910023e8     	add	x8, sp, #0x8
    4f80: d10043a9     	sub	x9, x29, #0x10
    4f84: 912a1042     	add	x2, x2, #0xa84
    4f88: 910043e1     	add	x1, sp, #0x10
    4f8c: f81f03a8     	stur	x8, [x29, #-0x10]
    4f90: f9000be9     	str	x9, [sp, #0x10]
    4f94: 9400045f     	bl	0x6110 <_ZNSt3__111__call_onceERVmPvPFvS2_E@plt>
    4f98: b9400740     	ldr	w0, [x26, #0x4]
    4f9c: 52800021     	mov	w1, #0x1                // =1
    4fa0: 94000470     	bl	0x6160 <pthread_setspecific@plt>
    4fa4: f9402368     	ldr	x8, [x27, #0x40]
    4fa8: 2a1303e0     	mov	w0, w19
    4fac: aa1503e1     	mov	x1, x21
    4fb0: aa1403e2     	mov	x2, x20
    4fb4: d63f0100     	blr	x8
    4fb8: 360002a0     	tbz	w0, #0x0, 0x500c <.text+0x200c>
    4fbc: 9100c340     	add	x0, x26, #0x30
    4fc0: c8dffc08     	ldar	x8, [x0]
    4fc4: b100051f     	cmn	x8, #0x1
    4fc8: 54000120     	b.eq	0x4fec <.text+0x1fec>
    4fcc: b0000002     	adrp	x2, 0x5000 <.text+0x2000>
    4fd0: 910023e8     	add	x8, sp, #0x8
    4fd4: d10043a9     	sub	x9, x29, #0x10
    4fd8: 912a1042     	add	x2, x2, #0xa84
    4fdc: 910043e1     	add	x1, sp, #0x10
    4fe0: f81f03a8     	stur	x8, [x29, #-0x10]
    4fe4: f9000be9     	str	x9, [sp, #0x10]
    4fe8: 9400044a     	bl	0x6110 <_ZNSt3__111__call_onceERVmPvPFvS2_E@plt>
    4fec: b9400740     	ldr	w0, [x26, #0x4]
    4ff0: aa1603e1     	mov	x1, x22
    4ff4: 9400045b     	bl	0x6160 <pthread_setspecific@plt>
    4ff8: f9401728     	ldr	x8, [x25, #0x28]
    4ffc: f85f83a9     	ldur	x9, [x29, #-0x8]
    5000: eb09011f     	cmp	x8, x9
    5004: 54ffede0     	b.eq	0x4dc0 <.text+0x1dc0>
    5008: 940003ca     	bl	0x5f30 <__stack_chk_fail@plt>
    500c: f9400b48     	ldr	x8, [x26, #0x10]
    5010: 910063e1     	add	x1, sp, #0x18
    5014: 52800040     	mov	w0, #0x2                // =2
    5018: aa1f03e2     	mov	x2, xzr
    501c: d63f0100     	blr	x8
    5020: 9100c340     	add	x0, x26, #0x30
    5024: c8dffc08     	ldar	x8, [x0]
    5028: b100051f     	cmn	x8, #0x1
    502c: 54000120     	b.eq	0x5050 <.text+0x2050>
    5030: 90000002     	adrp	x2, 0x5000 <.text+0x2000>
    5034: 910023e8     	add	x8, sp, #0x8
    5038: d10043a9     	sub	x9, x29, #0x10
    503c: 912a1042     	add	x2, x2, #0xa84
    5040: 910043e1     	add	x1, sp, #0x10
    5044: f81f03a8     	stur	x8, [x29, #-0x10]
    5048: f9000be9     	str	x9, [sp, #0x10]
    504c: 94000431     	bl	0x6110 <_ZNSt3__111__call_onceERVmPvPFvS2_E@plt>
    5050: b9400740     	ldr	w0, [x26, #0x4]
    5054: f10002ff     	cmp	x23, #0x0
    5058: 1a9f07e1     	cset	w1, ne
    505c: 94000441     	bl	0x6160 <pthread_setspecific@plt>
    5060: 17ffff1f     	b	0x4cdc <.text+0x1cdc>
    5064: 90ffffe0     	adrp	x0, 0x1000
    5068: 91342800     	add	x0, x0, #0xd0a
    506c: 2a1303e1     	mov	w1, w19
    5070: 97fffeb2     	bl	0x4b38 <.text+0x1b38>
    5074: 9400043f     	bl	0x6170 <abort@plt>

0000000000005078 <sigaction>:
; sigaction():
    5078: d101c3ff     	sub	sp, sp, #0x70
    507c: a9037bfd     	stp	x29, x30, [sp, #0x30]
    5080: a9045ff8     	stp	x24, x23, [sp, #0x40]
    5084: a90557f6     	stp	x22, x21, [sp, #0x50]
    5088: a9064ff4     	stp	x20, x19, [sp, #0x60]
    508c: 9100c3fd     	add	x29, sp, #0x30
    5090: d53bd056     	mrs	x22, TPIDR_EL0
    5094: f94016c8     	ldr	x8, [x22, #0x28]
    5098: 90000037     	adrp	x23, 0x9000
    509c: 9131c2f7     	add	x23, x23, #0xc70
    50a0: aa0203f3     	mov	x19, x2
    50a4: f81f83a8     	stur	x8, [x29, #-0x8]
    50a8: 910022e8     	add	x8, x23, #0x8
    50ac: c8dffd09     	ldar	x9, [x8]
    50b0: aa0103f4     	mov	x20, x1
    50b4: 2a0003f5     	mov	w21, w0
    50b8: b100053f     	cmn	x9, #0x1
    50bc: 54000140     	b.eq	0x50e4 <sigaction+0x6c>
    50c0: 90000002     	adrp	x2, 0x5000 <.text+0x2000>
    50c4: 910043e9     	add	x9, sp, #0x10
    50c8: d10043aa     	sub	x10, x29, #0x10
    50cc: 912b1042     	add	x2, x2, #0xac4
    50d0: 910063e1     	add	x1, sp, #0x18
    50d4: aa0803e0     	mov	x0, x8
    50d8: f81f03a9     	stur	x9, [x29, #-0x10]
    50dc: f9000fea     	str	x10, [sp, #0x18]
    50e0: 9400040c     	bl	0x6110 <_ZNSt3__111__call_onceERVmPvPFvS2_E@plt>
    50e4: 394002e8     	ldrb	w8, [x23]
    50e8: 34000068     	cbz	w8, 0x50f4 <sigaction+0x7c>
    50ec: 2a1f03e0     	mov	w0, wzr
    50f0: 1400002d     	b	0x51a4 <sigaction+0x12c>
    50f4: 510006a8     	sub	w8, w21, #0x1
    50f8: 7101011f     	cmp	w8, #0x40
    50fc: 540000c3     	b.lo	0x5114 <sigaction+0x9c>
    5100: 94000364     	bl	0x5e90 <__errno@plt>
    5104: 528002c8     	mov	w8, #0x16               // =22
    5108: b9000008     	str	w8, [x0]
    510c: 12800000     	mov	w0, #-0x1               // =-1
    5110: 14000025     	b	0x51a4 <sigaction+0x12c>
    5114: 52800b08     	mov	w8, #0x58               // =88
    5118: 9ba87ea9     	umull	x9, w21, w8
    511c: f0000008     	adrp	x8, 0x8000
    5120: 91170108     	add	x8, x8, #0x5c0
    5124: 38696909     	ldrb	w9, [x8, x9]
    5128: 34000349     	cbz	w9, 0x5190 <sigaction+0x118>
    512c: 2a1503e9     	mov	w9, w21
    5130: 52800b0a     	mov	w10, #0x58              // =88
    5134: 9b0a2138     	madd	x24, x9, x10, x8
    5138: b9400b17     	ldr	w23, [x24, #0x8]
    513c: f9401315     	ldr	x21, [x24, #0x20]
    5140: 3dc00700     	ldr	q0, [x24, #0x10]
    5144: b40001b4     	cbz	x20, 0x5178 <sigaction+0x100>
    5148: b9400288     	ldr	w8, [x20]
    514c: 91006300     	add	x0, x24, #0x18
    5150: 3d8003e0     	str	q0, [sp]
    5154: b9000b08     	str	w8, [x24, #0x8]
    5158: f9400688     	ldr	x8, [x20, #0x8]
    515c: f9000b08     	str	x8, [x24, #0x10]
    5160: f9400e88     	ldr	x8, [x20, #0x18]
    5164: f9001308     	str	x8, [x24, #0x20]
    5168: 940003f2     	bl	0x6130 <sigemptyset@plt>
    516c: 3dc003e0     	ldr	q0, [sp]
    5170: f9400a88     	ldr	x8, [x20, #0x10]
    5174: f9000f08     	str	x8, [x24, #0x18]
    5178: 2a1f03e0     	mov	w0, wzr
    517c: b4000153     	cbz	x19, 0x51a4 <sigaction+0x12c>
    5180: f9000277     	str	x23, [x19]
    5184: 3c808260     	stur	q0, [x19, #0x8]
    5188: f9000e75     	str	x21, [x19, #0x18]
    518c: 14000006     	b	0x51a4 <sigaction+0x12c>
    5190: f94012e8     	ldr	x8, [x23, #0x20]
    5194: 2a1503e0     	mov	w0, w21
    5198: aa1403e1     	mov	x1, x20
    519c: aa1303e2     	mov	x2, x19
    51a0: d63f0100     	blr	x8
    51a4: f94016c8     	ldr	x8, [x22, #0x28]
    51a8: f85f83a9     	ldur	x9, [x29, #-0x8]
    51ac: eb09011f     	cmp	x8, x9
    51b0: 540000e1     	b.ne	0x51cc <sigaction+0x154>
    51b4: a9464ff4     	ldp	x20, x19, [sp, #0x60]
    51b8: a94557f6     	ldp	x22, x21, [sp, #0x50]
    51bc: a9445ff8     	ldp	x24, x23, [sp, #0x40]
    51c0: a9437bfd     	ldp	x29, x30, [sp, #0x30]
    51c4: 9101c3ff     	add	sp, sp, #0x70
    51c8: d65f03c0     	ret
    51cc: 94000359     	bl	0x5f30 <__stack_chk_fail@plt>

00000000000051d0 <sigaction64>:
; sigaction64():
    51d0: d10203ff     	sub	sp, sp, #0x80
    51d4: a9047bfd     	stp	x29, x30, [sp, #0x40]
    51d8: f9002bf7     	str	x23, [sp, #0x50]
    51dc: a90657f6     	stp	x22, x21, [sp, #0x60]
    51e0: a9074ff4     	stp	x20, x19, [sp, #0x70]
    51e4: 910103fd     	add	x29, sp, #0x40
    51e8: d53bd056     	mrs	x22, TPIDR_EL0
    51ec: f94016c8     	ldr	x8, [x22, #0x28]
    51f0: 90000037     	adrp	x23, 0x9000
    51f4: 9131c2f7     	add	x23, x23, #0xc70
    51f8: aa0203f3     	mov	x19, x2
    51fc: f81f83a8     	stur	x8, [x29, #-0x8]
    5200: 910022e8     	add	x8, x23, #0x8
    5204: c8dffd09     	ldar	x9, [x8]
    5208: aa0103f4     	mov	x20, x1
    520c: 2a0003f5     	mov	w21, w0
    5210: b100053f     	cmn	x9, #0x1
    5214: 54000120     	b.eq	0x5238 <sigaction64+0x68>
    5218: 90000002     	adrp	x2, 0x5000 <.text+0x2000>
    521c: 910003e9     	mov	x9, sp
    5220: 910043ea     	add	x10, sp, #0x10
    5224: 912b1042     	add	x2, x2, #0xac4
    5228: 910023e1     	add	x1, sp, #0x8
    522c: aa0803e0     	mov	x0, x8
    5230: a900a7ea     	stp	x10, x9, [sp, #0x8]
    5234: 940003b7     	bl	0x6110 <_ZNSt3__111__call_onceERVmPvPFvS2_E@plt>
    5238: 394002e8     	ldrb	w8, [x23]
    523c: 34000188     	cbz	w8, 0x526c <sigaction64+0x9c>
    5240: 2a1f03e0     	mov	w0, wzr
    5244: f94016c8     	ldr	x8, [x22, #0x28]
    5248: f85f83a9     	ldur	x9, [x29, #-0x8]
    524c: eb09011f     	cmp	x8, x9
    5250: 54000241     	b.ne	0x5298 <sigaction64+0xc8>
    5254: a9474ff4     	ldp	x20, x19, [sp, #0x70]
    5258: a94657f6     	ldp	x22, x21, [sp, #0x60]
    525c: f9402bf7     	ldr	x23, [sp, #0x50]
    5260: a9447bfd     	ldp	x29, x30, [sp, #0x40]
    5264: 910203ff     	add	sp, sp, #0x80
    5268: d65f03c0     	ret
    526c: 510006a8     	sub	w8, w21, #0x1
    5270: 7101011f     	cmp	w8, #0x40
    5274: 54000143     	b.lo	0x529c <sigaction64+0xcc>
    5278: 94000306     	bl	0x5e90 <__errno@plt>
    527c: 528002c8     	mov	w8, #0x16               // =22
    5280: b9000008     	str	w8, [x0]
    5284: 12800000     	mov	w0, #-0x1               // =-1
    5288: f94016c8     	ldr	x8, [x22, #0x28]
    528c: f85f83a9     	ldur	x9, [x29, #-0x8]
    5290: eb09011f     	cmp	x8, x9
    5294: 54fffe00     	b.eq	0x5254 <sigaction64+0x84>
    5298: 94000326     	bl	0x5f30 <__stack_chk_fail@plt>
    529c: 52800b08     	mov	w8, #0x58               // =88
    52a0: 9ba87ea9     	umull	x9, w21, w8
    52a4: f0000008     	adrp	x8, 0x8000
    52a8: 91170108     	add	x8, x8, #0x5c0
    52ac: 38696909     	ldrb	w9, [x8, x9]
    52b0: 340001e9     	cbz	w9, 0x52ec <sigaction64+0x11c>
    52b4: 2a1503e9     	mov	w9, w21
    52b8: 52800b0a     	mov	w10, #0x58              // =88
    52bc: 9b0a2128     	madd	x8, x9, x10, x8
    52c0: 3cc18100     	ldur	q0, [x8, #0x18]
    52c4: 3cc08101     	ldur	q1, [x8, #0x8]
    52c8: ad0083e1     	stp	q1, q0, [sp, #0x10]
    52cc: b4000094     	cbz	x20, 0x52dc <sigaction64+0x10c>
    52d0: ad400281     	ldp	q1, q0, [x20]
    52d4: 91002108     	add	x8, x8, #0x8
    52d8: ad000101     	stp	q1, q0, [x8]
    52dc: b4fffb33     	cbz	x19, 0x5240 <sigaction64+0x70>
    52e0: ad4083e1     	ldp	q1, q0, [sp, #0x10]
    52e4: ad000261     	stp	q1, q0, [x19]
    52e8: 17ffffd6     	b	0x5240 <sigaction64+0x70>
    52ec: f94016e8     	ldr	x8, [x23, #0x28]
    52f0: 2a1503e0     	mov	w0, w21
    52f4: aa1403e1     	mov	x1, x20
    52f8: aa1303e2     	mov	x2, x19
    52fc: d63f0100     	blr	x8
    5300: f94016c8     	ldr	x8, [x22, #0x28]
    5304: f85f83a9     	ldur	x9, [x29, #-0x8]
    5308: eb09011f     	cmp	x8, x9
    530c: 54fffa40     	b.eq	0x5254 <sigaction64+0x84>
    5310: 17ffffe2     	b	0x5298 <sigaction64+0xc8>

0000000000005314 <signal>:
; signal():
    5314: d101c3ff     	sub	sp, sp, #0x70
    5318: a9047bfd     	stp	x29, x30, [sp, #0x40]
    531c: a90557f6     	stp	x22, x21, [sp, #0x50]
    5320: a9064ff4     	stp	x20, x19, [sp, #0x60]
    5324: 910103fd     	add	x29, sp, #0x40
    5328: d53bd055     	mrs	x21, TPIDR_EL0
    532c: f94016a8     	ldr	x8, [x21, #0x28]
    5330: 90000036     	adrp	x22, 0x9000
    5334: 9131c2d6     	add	x22, x22, #0xc70
    5338: aa0103f3     	mov	x19, x1
    533c: f81f83a8     	stur	x8, [x29, #-0x8]
    5340: 910022c8     	add	x8, x22, #0x8
    5344: c8dffd09     	ldar	x9, [x8]
    5348: 2a0003f4     	mov	w20, w0
    534c: b100053f     	cmn	x9, #0x1
    5350: 54000120     	b.eq	0x5374 <signal+0x60>
    5354: 90000002     	adrp	x2, 0x5000 <.text+0x2000>
    5358: 910003e9     	mov	x9, sp
    535c: 910043ea     	add	x10, sp, #0x10
    5360: 912b1042     	add	x2, x2, #0xac4
    5364: 910023e1     	add	x1, sp, #0x8
    5368: aa0803e0     	mov	x0, x8
    536c: a900a7ea     	stp	x10, x9, [sp, #0x8]
    5370: 94000368     	bl	0x6110 <_ZNSt3__111__call_onceERVmPvPFvS2_E@plt>
    5374: 51000688     	sub	w8, w20, #0x1
    5378: 7101011f     	cmp	w8, #0x40
    537c: 540001e3     	b.lo	0x53b8 <signal+0xa4>
    5380: 940002c4     	bl	0x5e90 <__errno@plt>
    5384: 528002c8     	mov	w8, #0x16               // =22
    5388: b9000008     	str	w8, [x0]
    538c: 92800014     	mov	x20, #-0x1              // =-1
    5390: f94016a8     	ldr	x8, [x21, #0x28]
    5394: f85f83a9     	ldur	x9, [x29, #-0x8]
    5398: eb09011f     	cmp	x8, x9
    539c: 540004c1     	b.ne	0x5434 <signal+0x120>
    53a0: aa1403e0     	mov	x0, x20
    53a4: a9464ff4     	ldp	x20, x19, [sp, #0x60]
    53a8: a94557f6     	ldp	x22, x21, [sp, #0x50]
    53ac: a9447bfd     	ldp	x29, x30, [sp, #0x40]
    53b0: 9101c3ff     	add	sp, sp, #0x70
    53b4: d65f03c0     	ret
    53b8: 910043e8     	add	x8, sp, #0x10
    53bc: 6f00e400     	movi	v0.2d, #0000000000000000
    53c0: 91004100     	add	x0, x8, #0x10
    53c4: ad0083e0     	stp	q0, q0, [sp, #0x10]
    53c8: 9400035a     	bl	0x6130 <sigemptyset@plt>
    53cc: 52800b08     	mov	w8, #0x58               // =88
    53d0: 9ba87e89     	umull	x9, w20, w8
    53d4: f0000008     	adrp	x8, 0x8000
    53d8: 91170108     	add	x8, x8, #0x5c0
    53dc: 3869690a     	ldrb	w10, [x8, x9]
    53e0: 52a30009     	mov	w9, #0x18000000         // =402653184
    53e4: f9000ff3     	str	x19, [sp, #0x18]
    53e8: b90013e9     	str	w9, [sp, #0x10]
    53ec: 3400026a     	cbz	w10, 0x5438 <signal+0x124>
    53f0: 2a1403ea     	mov	w10, w20
    53f4: 52800b0b     	mov	w11, #0x58              // =88
    53f8: f94017ec     	ldr	x12, [sp, #0x28]
    53fc: d503201f     	nop
    5400: 9b0b2156     	madd	x22, x10, x11, x8
    5404: f9400ad4     	ldr	x20, [x22, #0x10]
    5408: 910062c0     	add	x0, x22, #0x18
    540c: b9000ac9     	str	w9, [x22, #0x8]
    5410: f9000ad3     	str	x19, [x22, #0x10]
    5414: f90012cc     	str	x12, [x22, #0x20]
    5418: 94000346     	bl	0x6130 <sigemptyset@plt>
    541c: f94013e8     	ldr	x8, [sp, #0x20]
    5420: f9000ec8     	str	x8, [x22, #0x18]
    5424: f94016a8     	ldr	x8, [x21, #0x28]
    5428: f85f83a9     	ldur	x9, [x29, #-0x8]
    542c: eb09011f     	cmp	x8, x9
    5430: 54fffb80     	b.eq	0x53a0 <signal+0x8c>
    5434: 940002bf     	bl	0x5f30 <__stack_chk_fail@plt>
    5438: f94012c8     	ldr	x8, [x22, #0x20]
    543c: 910043e1     	add	x1, sp, #0x10
    5440: 910043e2     	add	x2, sp, #0x10
    5444: 2a1403e0     	mov	w0, w20
    5448: d63f0100     	blr	x8
    544c: 3100041f     	cmn	w0, #0x1
    5450: 54fff9e0     	b.eq	0x538c <signal+0x78>
    5454: f9400ff4     	ldr	x20, [sp, #0x18]
    5458: f94016a8     	ldr	x8, [x21, #0x28]
    545c: f85f83a9     	ldur	x9, [x29, #-0x8]
    5460: eb09011f     	cmp	x8, x9
    5464: 54fff9e0     	b.eq	0x53a0 <signal+0x8c>
    5468: 17fffff3     	b	0x5434 <signal+0x120>

000000000000546c <sigprocmask>:
; sigprocmask():
    546c: d10183ff     	sub	sp, sp, #0x60
    5470: a9027bfd     	stp	x29, x30, [sp, #0x20]
    5474: f9001bf7     	str	x23, [sp, #0x30]
    5478: a90457f6     	stp	x22, x21, [sp, #0x40]
    547c: a9054ff4     	stp	x20, x19, [sp, #0x50]
    5480: 910083fd     	add	x29, sp, #0x20
    5484: d53bd056     	mrs	x22, TPIDR_EL0
    5488: f94016c8     	ldr	x8, [x22, #0x28]
    548c: 90000037     	adrp	x23, 0x9000
    5490: 9131c2f7     	add	x23, x23, #0xc70
    5494: aa0203f3     	mov	x19, x2
    5498: f81f83a8     	stur	x8, [x29, #-0x8]
    549c: 910022e8     	add	x8, x23, #0x8
    54a0: c8dffd09     	ldar	x9, [x8]
    54a4: aa0103f4     	mov	x20, x1
    54a8: 2a0003f5     	mov	w21, w0
    54ac: b100053f     	cmn	x9, #0x1
    54b0: 54000120     	b.eq	0x54d4 <sigprocmask+0x68>
    54b4: 90000002     	adrp	x2, 0x5000 <.text+0x2000>
    54b8: 910003e9     	mov	x9, sp
    54bc: 910043ea     	add	x10, sp, #0x10
    54c0: 912b1042     	add	x2, x2, #0xac4
    54c4: 910023e1     	add	x1, sp, #0x8
    54c8: aa0803e0     	mov	x0, x8
    54cc: a900a7ea     	stp	x10, x9, [sp, #0x8]
    54d0: 94000310     	bl	0x6110 <_ZNSt3__111__call_onceERVmPvPFvS2_E@plt>
    54d4: f9400ae3     	ldr	x3, [x23, #0x10]
    54d8: 2a1503e0     	mov	w0, w21
    54dc: aa1403e1     	mov	x1, x20
    54e0: aa1303e2     	mov	x2, x19
    54e4: 9400000c     	bl	0x5514 <sigprocmask+0xa8>
    54e8: f94016c8     	ldr	x8, [x22, #0x28]
    54ec: f85f83a9     	ldur	x9, [x29, #-0x8]
    54f0: eb09011f     	cmp	x8, x9
    54f4: 540000e1     	b.ne	0x5510 <sigprocmask+0xa4>
    54f8: a9454ff4     	ldp	x20, x19, [sp, #0x50]
    54fc: a94457f6     	ldp	x22, x21, [sp, #0x40]
    5500: f9401bf7     	ldr	x23, [sp, #0x30]
    5504: a9427bfd     	ldp	x29, x30, [sp, #0x20]
    5508: 910183ff     	add	sp, sp, #0x60
    550c: d65f03c0     	ret
    5510: 94000288     	bl	0x5f30 <__stack_chk_fail@plt>
    5514: d10183ff     	sub	sp, sp, #0x60
    5518: a9027bfd     	stp	x29, x30, [sp, #0x20]
    551c: a9035ff8     	stp	x24, x23, [sp, #0x30]
    5520: a90457f6     	stp	x22, x21, [sp, #0x40]
    5524: a9054ff4     	stp	x20, x19, [sp, #0x50]
    5528: 910083fd     	add	x29, sp, #0x20
    552c: d53bd057     	mrs	x23, TPIDR_EL0
    5530: f94016e8     	ldr	x8, [x23, #0x28]
    5534: 90000038     	adrp	x24, 0x9000
    5538: 9131c318     	add	x24, x24, #0xc70
    553c: aa0303f3     	mov	x19, x3
    5540: f81f83a8     	stur	x8, [x29, #-0x8]
    5544: 9100c308     	add	x8, x24, #0x30
    5548: c8dffd09     	ldar	x9, [x8]
    554c: aa0203f4     	mov	x20, x2
    5550: aa0103f6     	mov	x22, x1
    5554: 2a0003f5     	mov	w21, w0
    5558: b100053f     	cmn	x9, #0x1
    555c: 54000120     	b.eq	0x5580 <sigprocmask+0x114>
    5560: 90000002     	adrp	x2, 0x5000 <.text+0x2000>
    5564: 910003e9     	mov	x9, sp
    5568: 910043ea     	add	x10, sp, #0x10
    556c: 912a1042     	add	x2, x2, #0xa84
    5570: 910023e1     	add	x1, sp, #0x8
    5574: aa0803e0     	mov	x0, x8
    5578: a900a7ea     	stp	x10, x9, [sp, #0x8]
    557c: 940002e5     	bl	0x6110 <_ZNSt3__111__call_onceERVmPvPFvS2_E@plt>
    5580: b9400700     	ldr	w0, [x24, #0x4]
    5584: 940002e7     	bl	0x6120 <pthread_getspecific@plt>
    5588: b4000080     	cbz	x0, 0x5598 <sigprocmask+0x12c>
    558c: 2a1503e0     	mov	w0, w21
    5590: aa1603e1     	mov	x1, x22
    5594: 1400001f     	b	0x5610 <sigprocmask+0x1a4>
    5598: f9000bff     	str	xzr, [sp, #0x10]
    559c: b4000376     	cbz	x22, 0x5608 <sigprocmask+0x19c>
    55a0: f94002c8     	ldr	x8, [x22]
    55a4: 321f02a9     	orr	w9, w21, #0x2
    55a8: 7100093f     	cmp	w9, #0x2
    55ac: f9000be8     	str	x8, [sp, #0x10]
    55b0: 54000281     	b.ne	0x5600 <sigprocmask+0x194>
    55b4: f0000008     	adrp	x8, 0x8000
    55b8: 91170108     	add	x8, x8, #0x5c0
    55bc: 91016118     	add	x24, x8, #0x58
    55c0: 52800036     	mov	w22, #0x1               // =1
    55c4: 14000005     	b	0x55d8 <sigprocmask+0x16c>
    55c8: 910006d6     	add	x22, x22, #0x1
    55cc: f10106df     	cmp	x22, #0x41
    55d0: 91016318     	add	x24, x24, #0x58
    55d4: 54000160     	b.eq	0x5600 <sigprocmask+0x194>
    55d8: 39400308     	ldrb	w8, [x24]
    55dc: 34ffff68     	cbz	w8, 0x55c8 <sigprocmask+0x15c>
    55e0: 910043e0     	add	x0, sp, #0x10
    55e4: 2a1603e1     	mov	w1, w22
    55e8: 940002da     	bl	0x6150 <sigismember@plt>
    55ec: 34fffee0     	cbz	w0, 0x55c8 <sigprocmask+0x15c>
    55f0: 910043e0     	add	x0, sp, #0x10
    55f4: 2a1603e1     	mov	w1, w22
    55f8: 940002e2     	bl	0x6180 <sigdelset@plt>
    55fc: 17fffff3     	b	0x55c8 <sigprocmask+0x15c>
    5600: 910043e1     	add	x1, sp, #0x10
    5604: 14000002     	b	0x560c <sigprocmask+0x1a0>
    5608: aa1f03e1     	mov	x1, xzr
    560c: 2a1503e0     	mov	w0, w21
    5610: aa1403e2     	mov	x2, x20
    5614: d63f0260     	blr	x19
    5618: f94016e8     	ldr	x8, [x23, #0x28]
    561c: f85f83a9     	ldur	x9, [x29, #-0x8]
    5620: eb09011f     	cmp	x8, x9
    5624: 540000e1     	b.ne	0x5640 <sigprocmask+0x1d4>
    5628: a9454ff4     	ldp	x20, x19, [sp, #0x50]
    562c: a94457f6     	ldp	x22, x21, [sp, #0x40]
    5630: a9435ff8     	ldp	x24, x23, [sp, #0x30]
    5634: a9427bfd     	ldp	x29, x30, [sp, #0x20]
    5638: 910183ff     	add	sp, sp, #0x60
    563c: d65f03c0     	ret
    5640: 9400023c     	bl	0x5f30 <__stack_chk_fail@plt>

0000000000005644 <sigprocmask64>:
; sigprocmask64():
    5644: d10183ff     	sub	sp, sp, #0x60
    5648: a9027bfd     	stp	x29, x30, [sp, #0x20]
    564c: f9001bf7     	str	x23, [sp, #0x30]
    5650: a90457f6     	stp	x22, x21, [sp, #0x40]
    5654: a9054ff4     	stp	x20, x19, [sp, #0x50]
    5658: 910083fd     	add	x29, sp, #0x20
    565c: d53bd056     	mrs	x22, TPIDR_EL0
    5660: f94016c8     	ldr	x8, [x22, #0x28]
    5664: 90000037     	adrp	x23, 0x9000
    5668: 9131c2f7     	add	x23, x23, #0xc70
    566c: aa0203f3     	mov	x19, x2
    5670: f81f83a8     	stur	x8, [x29, #-0x8]
    5674: 910022e8     	add	x8, x23, #0x8
    5678: c8dffd09     	ldar	x9, [x8]
    567c: aa0103f4     	mov	x20, x1
    5680: 2a0003f5     	mov	w21, w0
    5684: b100053f     	cmn	x9, #0x1
    5688: 54000120     	b.eq	0x56ac <sigprocmask64+0x68>
    568c: 90000002     	adrp	x2, 0x5000 <.text+0x2000>
    5690: 910003e9     	mov	x9, sp
    5694: 910043ea     	add	x10, sp, #0x10
    5698: 912b1042     	add	x2, x2, #0xac4
    569c: 910023e1     	add	x1, sp, #0x8
    56a0: aa0803e0     	mov	x0, x8
    56a4: a900a7ea     	stp	x10, x9, [sp, #0x8]
    56a8: 9400029a     	bl	0x6110 <_ZNSt3__111__call_onceERVmPvPFvS2_E@plt>
    56ac: f9400ee3     	ldr	x3, [x23, #0x18]
    56b0: 2a1503e0     	mov	w0, w21
    56b4: aa1403e1     	mov	x1, x20
    56b8: aa1303e2     	mov	x2, x19
    56bc: 97ffff96     	bl	0x5514 <sigprocmask+0xa8>
    56c0: f94016c8     	ldr	x8, [x22, #0x28]
    56c4: f85f83a9     	ldur	x9, [x29, #-0x8]
    56c8: eb09011f     	cmp	x8, x9
    56cc: 540000e1     	b.ne	0x56e8 <sigprocmask64+0xa4>
    56d0: a9454ff4     	ldp	x20, x19, [sp, #0x50]
    56d4: a94457f6     	ldp	x22, x21, [sp, #0x40]
    56d8: f9401bf7     	ldr	x23, [sp, #0x30]
    56dc: a9427bfd     	ldp	x29, x30, [sp, #0x20]
    56e0: 910183ff     	add	sp, sp, #0x60
    56e4: d65f03c0     	ret
    56e8: 94000212     	bl	0x5f30 <__stack_chk_fail@plt>

00000000000056ec <AddSpecialSignalHandlerFn>:
; AddSpecialSignalHandlerFn():
    56ec: d10203ff     	sub	sp, sp, #0x80
    56f0: a9047bfd     	stp	x29, x30, [sp, #0x40]
    56f4: f9002bf7     	str	x23, [sp, #0x50]
    56f8: a90657f6     	stp	x22, x21, [sp, #0x60]
    56fc: a9074ff4     	stp	x20, x19, [sp, #0x70]
    5700: 910103fd     	add	x29, sp, #0x40
    5704: d53bd055     	mrs	x21, TPIDR_EL0
    5708: f94016a8     	ldr	x8, [x21, #0x28]
    570c: 90000036     	adrp	x22, 0x9000
    5710: 9131c2d6     	add	x22, x22, #0xc70
    5714: aa0103f4     	mov	x20, x1
    5718: f81f83a8     	stur	x8, [x29, #-0x8]
    571c: 910022c8     	add	x8, x22, #0x8
    5720: c8dffd09     	ldar	x9, [x8]
    5724: 2a0003f3     	mov	w19, w0
    5728: b100053f     	cmn	x9, #0x1
    572c: 54000120     	b.eq	0x5750 <AddSpecialSignalHandlerFn+0x64>
    5730: 90000002     	adrp	x2, 0x5000 <.text+0x2000>
    5734: 910003e9     	mov	x9, sp
    5738: 910043ea     	add	x10, sp, #0x10
    573c: 912b1042     	add	x2, x2, #0xac4
    5740: 910023e1     	add	x1, sp, #0x8
    5744: aa0803e0     	mov	x0, x8
    5748: a900a7ea     	stp	x10, x9, [sp, #0x8]
    574c: 94000271     	bl	0x6110 <_ZNSt3__111__call_onceERVmPvPFvS2_E@plt>
    5750: 51000668     	sub	w8, w19, #0x1
    5754: 7101011f     	cmp	w8, #0x40
    5758: 54000622     	b.hs	0x581c <AddSpecialSignalHandlerFn+0x130>
    575c: f0000008     	adrp	x8, 0x8000
    5760: 91170108     	add	x8, x8, #0x5c0
    5764: 52800b09     	mov	w9, #0x58               // =88
    5768: 9ba92277     	umaddl	x23, w19, w9, x8
    576c: aa1703e9     	mov	x9, x23
    5770: f8428d2a     	ldr	x10, [x9, #0x28]!
    5774: b400008a     	cbz	x10, 0x5784 <AddSpecialSignalHandlerFn+0x98>
    5778: aa1703e9     	mov	x9, x23
    577c: f8440d2a     	ldr	x10, [x9, #0x40]!
    5780: b50005aa     	cbnz	x10, 0x5834 <AddSpecialSignalHandlerFn+0x148>
    5784: f9400a8a     	ldr	x10, [x20, #0x10]
    5788: 3dc00280     	ldr	q0, [x20]
    578c: 2a1303eb     	mov	w11, w19
    5790: 52800b0c     	mov	w12, #0x58              // =88
    5794: f900092a     	str	x10, [x9, #0x10]
    5798: 3d800120     	str	q0, [x9]
    579c: d503201f     	nop
    57a0: 9b0c2174     	madd	x20, x11, x12, x8
    57a4: 39400288     	ldrb	w8, [x20]
    57a8: 35000268     	cbnz	w8, 0x57f4 <AddSpecialSignalHandlerFn+0x108>
    57ac: 910043e8     	add	x8, sp, #0x10
    57b0: 6f00e400     	movi	v0.2d, #0000000000000000
    57b4: 91004100     	add	x0, x8, #0x10
    57b8: ad0083e0     	stp	q0, q0, [sp, #0x10]
    57bc: 94000275     	bl	0x6190 <sigfillset64@plt>
    57c0: f0ffffe8     	adrp	x8, 0x4000 <.text+0x1000>
    57c4: f94016c9     	ldr	x9, [x22, #0x28]
    57c8: 91315108     	add	x8, x8, #0xc54
    57cc: f9000fe8     	str	x8, [sp, #0x18]
    57d0: 52800088     	mov	w8, #0x4                // =4
    57d4: 72a30008     	movk	w8, #0x1800, lsl #16
    57d8: 910022e2     	add	x2, x23, #0x8
    57dc: 910043e1     	add	x1, sp, #0x10
    57e0: 2a1303e0     	mov	w0, w19
    57e4: b90013e8     	str	w8, [sp, #0x10]
    57e8: d63f0120     	blr	x9
    57ec: 52800028     	mov	w8, #0x1                // =1
    57f0: 39000288     	strb	w8, [x20]
    57f4: f94016a8     	ldr	x8, [x21, #0x28]
    57f8: f85f83a9     	ldur	x9, [x29, #-0x8]
    57fc: eb09011f     	cmp	x8, x9
    5800: 54000181     	b.ne	0x5830 <AddSpecialSignalHandlerFn+0x144>
    5804: a9474ff4     	ldp	x20, x19, [sp, #0x70]
    5808: a94657f6     	ldp	x22, x21, [sp, #0x60]
    580c: f9402bf7     	ldr	x23, [sp, #0x50]
    5810: a9447bfd     	ldp	x29, x30, [sp, #0x40]
    5814: 910203ff     	add	sp, sp, #0x80
    5818: d65f03c0     	ret
    581c: 90ffffe0     	adrp	x0, 0x1000
    5820: 91376800     	add	x0, x0, #0xdda
    5824: 2a1303e1     	mov	w1, w19
    5828: 97fffcc4     	bl	0x4b38 <.text+0x1b38>
    582c: 94000251     	bl	0x6170 <abort@plt>
    5830: 940001c0     	bl	0x5f30 <__stack_chk_fail@plt>
    5834: 90ffffe0     	adrp	x0, 0x1000
    5838: 91364400     	add	x0, x0, #0xd91
    583c: 97fffcbf     	bl	0x4b38 <.text+0x1b38>
    5840: 9400024c     	bl	0x6170 <abort@plt>

0000000000005844 <RemoveSpecialSignalHandlerFn>:
; RemoveSpecialSignalHandlerFn():
    5844: d10143ff     	sub	sp, sp, #0x50
    5848: a9027bfd     	stp	x29, x30, [sp, #0x20]
    584c: f9001bf5     	str	x21, [sp, #0x30]
    5850: a9044ff4     	stp	x20, x19, [sp, #0x40]
    5854: 910083fd     	add	x29, sp, #0x20
    5858: d53bd055     	mrs	x21, TPIDR_EL0
    585c: f94016a8     	ldr	x8, [x21, #0x28]
    5860: 90000029     	adrp	x9, 0x9000
    5864: 9131c129     	add	x9, x9, #0xc70
    5868: aa0103f3     	mov	x19, x1
    586c: f81f83a8     	stur	x8, [x29, #-0x8]
    5870: 91002128     	add	x8, x9, #0x8
    5874: c8dffd09     	ldar	x9, [x8]
    5878: 2a0003f4     	mov	w20, w0
    587c: b100053f     	cmn	x9, #0x1
    5880: 54000120     	b.eq	0x58a4 <RemoveSpecialSignalHandlerFn+0x60>
    5884: 90000002     	adrp	x2, 0x5000 <.text+0x2000>
    5888: 910003e9     	mov	x9, sp
    588c: 910043ea     	add	x10, sp, #0x10
    5890: 912b1042     	add	x2, x2, #0xac4
    5894: 910023e1     	add	x1, sp, #0x8
    5898: aa0803e0     	mov	x0, x8
    589c: a900a7ea     	stp	x10, x9, [sp, #0x8]
    58a0: 9400021c     	bl	0x6110 <_ZNSt3__111__call_onceERVmPvPFvS2_E@plt>
    58a4: 51000688     	sub	w8, w20, #0x1
    58a8: 7101011f     	cmp	w8, #0x40
    58ac: 540003c2     	b.hs	0x5924 <RemoveSpecialSignalHandlerFn+0xe0>
    58b0: f0000008     	adrp	x8, 0x8000
    58b4: 91170108     	add	x8, x8, #0x5c0
    58b8: 52800b09     	mov	w9, #0x58               // =88
    58bc: 9ba92288     	umaddl	x8, w20, w9, x8
    58c0: aa0803e9     	mov	x9, x8
    58c4: f8428d2a     	ldr	x10, [x9, #0x28]!
    58c8: eb13015f     	cmp	x10, x19
    58cc: 54000100     	b.eq	0x58ec <RemoveSpecialSignalHandlerFn+0xa8>
    58d0: f9402109     	ldr	x9, [x8, #0x40]
    58d4: eb13013f     	cmp	x9, x19
    58d8: 54000120     	b.eq	0x58fc <RemoveSpecialSignalHandlerFn+0xb8>
    58dc: 90ffffe0     	adrp	x0, 0x1000
    58e0: 913ab400     	add	x0, x0, #0xead
    58e4: 97fffc95     	bl	0x4b38 <.text+0x1b38>
    58e8: 94000222     	bl	0x6170 <abort@plt>
    58ec: f940290a     	ldr	x10, [x8, #0x50]
    58f0: 3dc01100     	ldr	q0, [x8, #0x40]
    58f4: f900092a     	str	x10, [x9, #0x10]
    58f8: 3d800120     	str	q0, [x9]
    58fc: f900211f     	str	xzr, [x8, #0x40]
    5900: f94016a8     	ldr	x8, [x21, #0x28]
    5904: f85f83a9     	ldur	x9, [x29, #-0x8]
    5908: eb09011f     	cmp	x8, x9
    590c: 54000161     	b.ne	0x5938 <RemoveSpecialSignalHandlerFn+0xf4>
    5910: a9444ff4     	ldp	x20, x19, [sp, #0x40]
    5914: f9401bf5     	ldr	x21, [sp, #0x30]
    5918: a9427bfd     	ldp	x29, x30, [sp, #0x20]
    591c: 910143ff     	add	sp, sp, #0x50
    5920: d65f03c0     	ret
    5924: 90ffffe0     	adrp	x0, 0x1000
    5928: 91376800     	add	x0, x0, #0xdda
    592c: 2a1403e1     	mov	w1, w20
    5930: 97fffc82     	bl	0x4b38 <.text+0x1b38>
    5934: 9400020f     	bl	0x6170 <abort@plt>
    5938: 9400017e     	bl	0x5f30 <__stack_chk_fail@plt>

000000000000593c <EnsureFrontOfChain>:
; EnsureFrontOfChain():
    593c: d10243ff     	sub	sp, sp, #0x90
    5940: a9067bfd     	stp	x29, x30, [sp, #0x60]
    5944: a90757f6     	stp	x22, x21, [sp, #0x70]
    5948: a9084ff4     	stp	x20, x19, [sp, #0x80]
    594c: 910183fd     	add	x29, sp, #0x60
    5950: d53bd054     	mrs	x20, TPIDR_EL0
    5954: f9401688     	ldr	x8, [x20, #0x28]
    5958: 90000035     	adrp	x21, 0x9000
    595c: 9131c2b5     	add	x21, x21, #0xc70
    5960: 2a0003f3     	mov	w19, w0
    5964: f81f83a8     	stur	x8, [x29, #-0x8]
    5968: 910022a8     	add	x8, x21, #0x8
    596c: c8dffd09     	ldar	x9, [x8]
    5970: b100053f     	cmn	x9, #0x1
    5974: 54000140     	b.eq	0x599c <EnsureFrontOfChain+0x60>
    5978: 90000002     	adrp	x2, 0x5000 <.text+0x2000>
    597c: 910023e9     	add	x9, sp, #0x8
    5980: 9100c3ea     	add	x10, sp, #0x30
    5984: 912b1042     	add	x2, x2, #0xac4
    5988: 910043e1     	add	x1, sp, #0x10
    598c: aa0803e0     	mov	x0, x8
    5990: f9001be9     	str	x9, [sp, #0x30]
    5994: f9000bea     	str	x10, [sp, #0x10]
    5998: 940001de     	bl	0x6110 <_ZNSt3__111__call_onceERVmPvPFvS2_E@plt>
    599c: 51000668     	sub	w8, w19, #0x1
    59a0: 7101011f     	cmp	w8, #0x40
    59a4: 540005c2     	b.hs	0x5a5c <EnsureFrontOfChain+0x120>
    59a8: f94016a8     	ldr	x8, [x21, #0x28]
    59ac: 6f00e400     	movi	v0.2d, #0000000000000000
    59b0: 910043e2     	add	x2, sp, #0x10
    59b4: 2a1303e0     	mov	w0, w19
    59b8: aa1f03e1     	mov	x1, xzr
    59bc: ad0083e0     	stp	q0, q0, [sp, #0x10]
    59c0: d63f0100     	blr	x8
    59c4: f9400fe3     	ldr	x3, [sp, #0x18]
    59c8: f0fffff6     	adrp	x22, 0x4000 <.text+0x1000>
    59cc: 913152d6     	add	x22, x22, #0xc54
    59d0: eb16007f     	cmp	x3, x22
    59d4: 54000320     	b.eq	0x5a38 <EnsureFrontOfChain+0xfc>
    59d8: 90ffffe1     	adrp	x1, 0x1000
    59dc: 90ffffe2     	adrp	x2, 0x1000
    59e0: 91322821     	add	x1, x1, #0xc8a
    59e4: 91325842     	add	x2, x2, #0xc96
    59e8: 528000c0     	mov	w0, #0x6                // =6
    59ec: 97fffb9f     	bl	0x4868 <.text+0x1868>
    59f0: 9100c3e8     	add	x8, sp, #0x30
    59f4: 6f00e400     	movi	v0.2d, #0000000000000000
    59f8: 91004100     	add	x0, x8, #0x10
    59fc: ad0183e0     	stp	q0, q0, [sp, #0x30]
    5a00: 940001e4     	bl	0x6190 <sigfillset64@plt>
    5a04: 52800088     	mov	w8, #0x4                // =4
    5a08: 72a30008     	movk	w8, #0x1800, lsl #16
    5a0c: f94016a9     	ldr	x9, [x21, #0x28]
    5a10: f000000a     	adrp	x10, 0x8000
    5a14: 9117014a     	add	x10, x10, #0x5c0
    5a18: b90033e8     	str	w8, [sp, #0x30]
    5a1c: 52800b08     	mov	w8, #0x58               // =88
    5a20: 9ba82a68     	umaddl	x8, w19, w8, x10
    5a24: 91002102     	add	x2, x8, #0x8
    5a28: 9100c3e1     	add	x1, sp, #0x30
    5a2c: 2a1303e0     	mov	w0, w19
    5a30: f9001ff6     	str	x22, [sp, #0x38]
    5a34: d63f0120     	blr	x9
    5a38: f9401688     	ldr	x8, [x20, #0x28]
    5a3c: f85f83a9     	ldur	x9, [x29, #-0x8]
    5a40: eb09011f     	cmp	x8, x9
    5a44: 54000161     	b.ne	0x5a70 <EnsureFrontOfChain+0x134>
    5a48: a9484ff4     	ldp	x20, x19, [sp, #0x80]
    5a4c: a94757f6     	ldp	x22, x21, [sp, #0x70]
    5a50: a9467bfd     	ldp	x29, x30, [sp, #0x60]
    5a54: 910243ff     	add	sp, sp, #0x90
    5a58: d65f03c0     	ret
    5a5c: 90ffffe0     	adrp	x0, 0x1000
    5a60: 91376800     	add	x0, x0, #0xdda
    5a64: 2a1303e1     	mov	w1, w19
    5a68: 97fffc34     	bl	0x4b38 <.text+0x1b38>
    5a6c: 940001c1     	bl	0x6170 <abort@plt>
    5a70: 94000130     	bl	0x5f30 <__stack_chk_fail@plt>

0000000000005a74 <SkipAddSignalHandler>:
; SkipAddSignalHandler():
    5a74: 12000008     	and	w8, w0, #0x1
    5a78: 90000029     	adrp	x9, 0x9000
    5a7c: 3931c128     	strb	w8, [x9, #0xc70]
    5a80: d65f03c0     	ret
    5a84: a9bf7bfd     	stp	x29, x30, [sp, #-0x10]!
    5a88: 910003fd     	mov	x29, sp
    5a8c: 90000028     	adrp	x8, 0x9000
    5a90: 9131c108     	add	x8, x8, #0xc70
    5a94: 91001100     	add	x0, x8, #0x4
    5a98: aa1f03e1     	mov	x1, xzr
    5a9c: 940001c1     	bl	0x61a0 <pthread_key_create@plt>
    5aa0: 35000060     	cbnz	w0, 0x5aac <SkipAddSignalHandler+0x38>
    5aa4: a8c17bfd     	ldp	x29, x30, [sp], #0x10
    5aa8: d65f03c0     	ret
    5aac: 9400012d     	bl	0x5f60 <strerror@plt>
    5ab0: aa0003e1     	mov	x1, x0
    5ab4: 90ffffe0     	adrp	x0, 0x1000
    5ab8: 912d2c00     	add	x0, x0, #0xb4b
    5abc: 97fffc1f     	bl	0x4b38 <.text+0x1b38>
    5ac0: 940001ac     	bl	0x6170 <abort@plt>
    5ac4: a9be7bfd     	stp	x29, x30, [sp, #-0x20]!
    5ac8: f9000bf3     	str	x19, [sp, #0x10]
    5acc: 910003fd     	mov	x29, sp
    5ad0: 90000033     	adrp	x19, 0x9000
    5ad4: 9131c273     	add	x19, x19, #0xc70
    5ad8: 91010260     	add	x0, x19, #0x40
    5adc: 08dffc08     	ldarb	w8, [x0]
    5ae0: 36000628     	tbz	w8, #0x0, 0x5ba4 <SkipAddSignalHandler+0x130>
    5ae4: f9401e60     	ldr	x0, [x19, #0x38]
    5ae8: b0ffffe1     	adrp	x1, 0x2000
    5aec: 91014821     	add	x1, x1, #0x52
    5af0: 940001b0     	bl	0x61b0 <dlsym@plt>
    5af4: b5000100     	cbnz	x0, 0x5b14 <SkipAddSignalHandler+0xa0>
    5af8: b0ffffe1     	adrp	x1, 0x2000
    5afc: 91014821     	add	x1, x1, #0x52
    5b00: 940001ac     	bl	0x61b0 <dlsym@plt>
    5b04: 90000008     	adrp	x8, 0x5000 <.text+0x2000>
    5b08: 9101e108     	add	x8, x8, #0x78
    5b0c: eb08001f     	cmp	x0, x8
    5b10: 54000820     	b.eq	0x5c14 <SkipAddSignalHandler+0x1a0>
    5b14: 90000001     	adrp	x1, 0x5000 <.text+0x2000>
    5b18: 90ffffe2     	adrp	x2, 0x1000
    5b1c: f9001260     	str	x0, [x19, #0x20]
    5b20: 91004260     	add	x0, x19, #0x10
    5b24: 9111b021     	add	x1, x1, #0x46c
    5b28: 9137b042     	add	x2, x2, #0xdec
    5b2c: 94000048     	bl	0x5c4c <SkipAddSignalHandler+0x1d8>
    5b30: 91018260     	add	x0, x19, #0x60
    5b34: 08dffc08     	ldarb	w8, [x0]
    5b38: 360004c8     	tbz	w8, #0x0, 0x5bd0 <SkipAddSignalHandler+0x15c>
    5b3c: f9402e60     	ldr	x0, [x19, #0x58]
    5b40: 90ffffe1     	adrp	x1, 0x1000
    5b44: 91339421     	add	x1, x1, #0xce5
    5b48: 9400019a     	bl	0x61b0 <dlsym@plt>
    5b4c: b5000180     	cbnz	x0, 0x5b7c <SkipAddSignalHandler+0x108>
    5b50: 90ffffe1     	adrp	x1, 0x1000
    5b54: 91339421     	add	x1, x1, #0xce5
    5b58: 94000196     	bl	0x61b0 <dlsym@plt>
    5b5c: 90000008     	adrp	x8, 0x5000 <.text+0x2000>
    5b60: 91074108     	add	x8, x8, #0x1d0
    5b64: eb08001f     	cmp	x0, x8
    5b68: 540004a0     	b.eq	0x5bfc <SkipAddSignalHandler+0x188>
    5b6c: 90000008     	adrp	x8, 0x5000 <.text+0x2000>
    5b70: 9101e108     	add	x8, x8, #0x78
    5b74: eb08001f     	cmp	x0, x8
    5b78: 54000420     	b.eq	0x5bfc <SkipAddSignalHandler+0x188>
    5b7c: 91006268     	add	x8, x19, #0x18
    5b80: f9001660     	str	x0, [x19, #0x28]
    5b84: f9400bf3     	ldr	x19, [sp, #0x10]
    5b88: 90000001     	adrp	x1, 0x5000 <.text+0x2000>
    5b8c: 90ffffe2     	adrp	x2, 0x1000
    5b90: 91191021     	add	x1, x1, #0x644
    5b94: 91306c42     	add	x2, x2, #0xc1b
    5b98: aa0803e0     	mov	x0, x8
    5b9c: a8c27bfd     	ldp	x29, x30, [sp], #0x20
    5ba0: 1400002b     	b	0x5c4c <SkipAddSignalHandler+0x1d8>
    5ba4: 94000187     	bl	0x61c0 <__cxa_guard_acquire@plt>
    5ba8: 34fff9e0     	cbz	w0, 0x5ae4 <SkipAddSignalHandler+0x70>
    5bac: 90ffffe0     	adrp	x0, 0x1000
    5bb0: 91362400     	add	x0, x0, #0xd89
    5bb4: 52800021     	mov	w1, #0x1                // =1
    5bb8: 94000186     	bl	0x61d0 <dlopen@plt>
    5bbc: b4000380     	cbz	x0, 0x5c2c <SkipAddSignalHandler+0x1b8>
    5bc0: f9001e60     	str	x0, [x19, #0x38]
    5bc4: 91010260     	add	x0, x19, #0x40
    5bc8: 94000186     	bl	0x61e0 <__cxa_guard_release@plt>
    5bcc: 17ffffc6     	b	0x5ae4 <SkipAddSignalHandler+0x70>
    5bd0: 9400017c     	bl	0x61c0 <__cxa_guard_acquire@plt>
    5bd4: 34fffb40     	cbz	w0, 0x5b3c <SkipAddSignalHandler+0xc8>
    5bd8: 90ffffe0     	adrp	x0, 0x1000
    5bdc: 91362400     	add	x0, x0, #0xd89
    5be0: 52800021     	mov	w1, #0x1                // =1
    5be4: 9400017b     	bl	0x61d0 <dlopen@plt>
    5be8: b4000220     	cbz	x0, 0x5c2c <SkipAddSignalHandler+0x1b8>
    5bec: f9002e60     	str	x0, [x19, #0x58]
    5bf0: 91018260     	add	x0, x19, #0x60
    5bf4: 9400017b     	bl	0x61e0 <__cxa_guard_release@plt>
    5bf8: 17ffffd1     	b	0x5b3c <SkipAddSignalHandler+0xc8>
    5bfc: 90ffffe0     	adrp	x0, 0x1000
    5c00: 90ffffe1     	adrp	x1, 0x1000
    5c04: 9130a400     	add	x0, x0, #0xc29
    5c08: 91339421     	add	x1, x1, #0xce5
    5c0c: 97fffbcb     	bl	0x4b38 <.text+0x1b38>
    5c10: 94000158     	bl	0x6170 <abort@plt>
    5c14: 90ffffe0     	adrp	x0, 0x1000
    5c18: b0ffffe1     	adrp	x1, 0x2000
    5c1c: 9130a400     	add	x0, x0, #0xc29
    5c20: 91014821     	add	x1, x1, #0x52
    5c24: 97fffbc5     	bl	0x4b38 <.text+0x1b38>
    5c28: 94000152     	bl	0x6170 <abort@plt>
    5c2c: 94000171     	bl	0x61f0 <dlerror@plt>
    5c30: aa0003e2     	mov	x2, x0
    5c34: 90ffffe0     	adrp	x0, 0x1000
    5c38: 90ffffe1     	adrp	x1, 0x1000
    5c3c: 9136fc00     	add	x0, x0, #0xdbf
    5c40: 91362421     	add	x1, x1, #0xd89
    5c44: 97fffbbd     	bl	0x4b38 <.text+0x1b38>
    5c48: 9400014a     	bl	0x6170 <abort@plt>
    5c4c: a9bd7bfd     	stp	x29, x30, [sp, #-0x30]!
    5c50: a90157f6     	stp	x22, x21, [sp, #0x10]
    5c54: a9024ff4     	stp	x20, x19, [sp, #0x20]
    5c58: 910003fd     	mov	x29, sp
    5c5c: 90000029     	adrp	x9, 0x9000
    5c60: 9131c129     	add	x9, x9, #0xc70
    5c64: 91014128     	add	x8, x9, #0x50
    5c68: 08dffd0a     	ldarb	w10, [x8]
    5c6c: aa0203f3     	mov	x19, x2
    5c70: aa0103f5     	mov	x21, x1
    5c74: aa0003f4     	mov	x20, x0
    5c78: 3600024a     	tbz	w10, #0x0, 0x5cc0 <SkipAddSignalHandler+0x24c>
    5c7c: f9402520     	ldr	x0, [x9, #0x48]
    5c80: aa1303e1     	mov	x1, x19
    5c84: 9400014b     	bl	0x61b0 <dlsym@plt>
    5c88: b5000120     	cbnz	x0, 0x5cac <SkipAddSignalHandler+0x238>
    5c8c: aa1303e1     	mov	x1, x19
    5c90: 94000148     	bl	0x61b0 <dlsym@plt>
    5c94: eb15001f     	cmp	x0, x21
    5c98: 54000360     	b.eq	0x5d04 <SkipAddSignalHandler+0x290>
    5c9c: 90000008     	adrp	x8, 0x5000 <.text+0x2000>
    5ca0: 9101e108     	add	x8, x8, #0x78
    5ca4: eb08001f     	cmp	x0, x8
    5ca8: 540002e0     	b.eq	0x5d04 <SkipAddSignalHandler+0x290>
    5cac: f9000280     	str	x0, [x20]
    5cb0: a9424ff4     	ldp	x20, x19, [sp, #0x20]
    5cb4: a94157f6     	ldp	x22, x21, [sp, #0x10]
    5cb8: a8c37bfd     	ldp	x29, x30, [sp], #0x30
    5cbc: d65f03c0     	ret
    5cc0: aa0803e0     	mov	x0, x8
    5cc4: 9400013f     	bl	0x61c0 <__cxa_guard_acquire@plt>
    5cc8: 90000029     	adrp	x9, 0x9000
    5ccc: 9131c129     	add	x9, x9, #0xc70
    5cd0: 34fffd60     	cbz	w0, 0x5c7c <SkipAddSignalHandler+0x208>
    5cd4: 90ffffe0     	adrp	x0, 0x1000
    5cd8: 91362400     	add	x0, x0, #0xd89
    5cdc: 52800021     	mov	w1, #0x1                // =1
    5ce0: 9400013c     	bl	0x61d0 <dlopen@plt>
    5ce4: b40001a0     	cbz	x0, 0x5d18 <SkipAddSignalHandler+0x2a4>
    5ce8: 90000036     	adrp	x22, 0x9000
    5cec: 9131c2d6     	add	x22, x22, #0xc70
    5cf0: f90026c0     	str	x0, [x22, #0x48]
    5cf4: 910142c0     	add	x0, x22, #0x50
    5cf8: 9400013a     	bl	0x61e0 <__cxa_guard_release@plt>
    5cfc: aa1603e9     	mov	x9, x22
    5d00: 17ffffdf     	b	0x5c7c <SkipAddSignalHandler+0x208>
    5d04: 90ffffe0     	adrp	x0, 0x1000
    5d08: 9130a400     	add	x0, x0, #0xc29
    5d0c: aa1303e1     	mov	x1, x19
    5d10: 97fffb8a     	bl	0x4b38 <.text+0x1b38>
    5d14: 94000117     	bl	0x6170 <abort@plt>
    5d18: 94000136     	bl	0x61f0 <dlerror@plt>
    5d1c: aa0003e2     	mov	x2, x0
    5d20: 90ffffe0     	adrp	x0, 0x1000
    5d24: 90ffffe1     	adrp	x1, 0x1000
    5d28: 9136fc00     	add	x0, x0, #0xdbf
    5d2c: 91362421     	add	x1, x1, #0xd89
    5d30: 97fffb82     	bl	0x4b38 <.text+0x1b38>
    5d34: 9400010f     	bl	0x6170 <abort@plt>

Disassembly of section .plt:

0000000000005d40 <.plt>:
    5d40: a9bf7bf0     	stp	x16, x30, [sp, #-0x10]!
    5d44: d0000010     	adrp	x16, 0x7000
    5d48: f941b611     	ldr	x17, [x16, #0x368]
    5d4c: 910da210     	add	x16, x16, #0x368
    5d50: d61f0220     	br	x17
    5d54: d503201f     	nop
    5d58: d503201f     	nop
    5d5c: d503201f     	nop

0000000000005d60 <__libc_init@plt>:
    5d60: d0000010     	adrp	x16, 0x7000
    5d64: f941ba11     	ldr	x17, [x16, #0x370]
    5d68: 910dc210     	add	x16, x16, #0x370
    5d6c: d61f0220     	br	x17

0000000000005d70 <__strlen_chk@plt>:
    5d70: d0000010     	adrp	x16, 0x7000
    5d74: f941be11     	ldr	x17, [x16, #0x378]
    5d78: 910de210     	add	x16, x16, #0x378
    5d7c: d61f0220     	br	x17

0000000000005d80 <_ZN7android14AndroidRuntimeC2EPcm@plt>:
    5d80: d0000010     	adrp	x16, 0x7000
    5d84: f941c211     	ldr	x17, [x16, #0x380]
    5d88: 910e0210     	add	x16, x16, #0x380
    5d8c: d61f0220     	br	x17

0000000000005d90 <_ZN7android7String8C1Ev@plt>:
    5d90: d0000010     	adrp	x16, 0x7000
    5d94: f941c611     	ldr	x17, [x16, #0x388]
    5d98: 910e2210     	add	x16, x16, #0x388
    5d9c: d61f0220     	br	x17

0000000000005da0 <_ZN7android10VectorImplC2Emj@plt>:
    5da0: d0000010     	adrp	x16, 0x7000
    5da4: f941ca11     	ldr	x17, [x16, #0x390]
    5da8: 910e4210     	add	x16, x16, #0x390
    5dac: d61f0220     	br	x17

0000000000005db0 <strdup@plt>:
    5db0: d0000010     	adrp	x16, 0x7000
    5db4: f941ce11     	ldr	x17, [x16, #0x398]
    5db8: 910e6210     	add	x16, x16, #0x398
    5dbc: d61f0220     	br	x17

0000000000005dc0 <_ZN7android14AndroidRuntime9addOptionEPKcPv@plt>:
    5dc0: d0000010     	adrp	x16, 0x7000
    5dc4: f941d211     	ldr	x17, [x16, #0x3a0]
    5dc8: 910e8210     	add	x16, x16, #0x3a0
    5dcc: d61f0220     	br	x17

0000000000005dd0 <strcmp@plt>:
    5dd0: d0000010     	adrp	x16, 0x7000
    5dd4: f941d611     	ldr	x17, [x16, #0x3a8]
    5dd8: 910ea210     	add	x16, x16, #0x3a8
    5ddc: d61f0220     	br	x17

0000000000005de0 <_ZN7android7String85setToEPKc@plt>:
    5de0: d0000010     	adrp	x16, 0x7000
    5de4: f941da11     	ldr	x17, [x16, #0x3b0]
    5de8: 910ec210     	add	x16, x16, #0x3b0
    5dec: d61f0220     	br	x17

0000000000005df0 <strncmp@plt>:
    5df0: d0000010     	adrp	x16, 0x7000
    5df4: f941de11     	ldr	x17, [x16, #0x3b8]
    5df8: 910ee210     	add	x16, x16, #0x3b8
    5dfc: d61f0220     	br	x17

0000000000005e00 <__android_log_print@plt>:
    5e00: d0000010     	adrp	x16, 0x7000
    5e04: f941e211     	ldr	x17, [x16, #0x3c0]
    5e08: 910f0210     	add	x16, x16, #0x3c0
    5e0c: d61f0220     	br	x17

0000000000005e10 <_ZNK7android7String86lengthEv@plt>:
    5e10: d0000010     	adrp	x16, 0x7000
    5e14: f941e611     	ldr	x17, [x16, #0x3c8]
    5e18: 910f2210     	add	x16, x16, #0x3c8
    5e1c: d61f0220     	br	x17

0000000000005e20 <_ZN7android7String8C1EPKc@plt>:
    5e20: d0000010     	adrp	x16, 0x7000
    5e24: f941ea11     	ldr	x17, [x16, #0x3d0]
    5e28: 910f4210     	add	x16, x16, #0x3d0
    5e2c: d61f0220     	br	x17

0000000000005e30 <_ZN7android10VectorImpl3addEPKv@plt>:
    5e30: d0000010     	adrp	x16, 0x7000
    5e34: f941ee11     	ldr	x17, [x16, #0x3d8]
    5e38: 910f6210     	add	x16, x16, #0x3d8
    5e3c: d61f0220     	br	x17

0000000000005e40 <_ZN7android7String8D1Ev@plt>:
    5e40: d0000010     	adrp	x16, 0x7000
    5e44: f941f211     	ldr	x17, [x16, #0x3e0]
    5e48: 910f8210     	add	x16, x16, #0x3e0
    5e4c: d61f0220     	br	x17

0000000000005e50 <_ZN7android7String85setToERKS0_@plt>:
    5e50: d0000010     	adrp	x16, 0x7000
    5e54: f941f611     	ldr	x17, [x16, #0x3e8]
    5e58: 910fa210     	add	x16, x16, #0x3e8
    5e5c: d61f0220     	br	x17

0000000000005e60 <getenv@plt>:
    5e60: d0000010     	adrp	x16, 0x7000
    5e64: f941fa11     	ldr	x17, [x16, #0x3f0]
    5e68: 910fc210     	add	x16, x16, #0x3f0
    5e6c: d61f0220     	br	x17

0000000000005e70 <memset@plt>:
    5e70: d0000010     	adrp	x16, 0x7000
    5e74: f941fe11     	ldr	x17, [x16, #0x3f8]
    5e78: 910fe210     	add	x16, x16, #0x3f8
    5e7c: d61f0220     	br	x17

0000000000005e80 <mkdir@plt>:
    5e80: d0000010     	adrp	x16, 0x7000
    5e84: f9420211     	ldr	x17, [x16, #0x400]
    5e88: 91100210     	add	x16, x16, #0x400
    5e8c: d61f0220     	br	x17

0000000000005e90 <__errno@plt>:
    5e90: d0000010     	adrp	x16, 0x7000
    5e94: f9420611     	ldr	x17, [x16, #0x408]
    5e98: 91102210     	add	x16, x16, #0x408
    5e9c: d61f0220     	br	x17

0000000000005ea0 <chown@plt>:
    5ea0: d0000010     	adrp	x16, 0x7000
    5ea4: f9420a11     	ldr	x17, [x16, #0x410]
    5ea8: 91104210     	add	x16, x16, #0x410
    5eac: d61f0220     	br	x17

0000000000005eb0 <chmod@plt>:
    5eb0: d0000010     	adrp	x16, 0x7000
    5eb4: f9420e11     	ldr	x17, [x16, #0x418]
    5eb8: 91106210     	add	x16, x16, #0x418
    5ebc: d61f0220     	br	x17

0000000000005ec0 <property_get@plt>:
    5ec0: d0000010     	adrp	x16, 0x7000
    5ec4: f9421211     	ldr	x17, [x16, #0x420]
    5ec8: 91108210     	add	x16, x16, #0x420
    5ecc: d61f0220     	br	x17

0000000000005ed0 <_ZN7android7String86appendEPKc@plt>:
    5ed0: d0000010     	adrp	x16, 0x7000
    5ed4: f9421611     	ldr	x17, [x16, #0x428]
    5ed8: 9110a210     	add	x16, x16, #0x428
    5edc: d61f0220     	br	x17

0000000000005ee0 <_ZN7android14AndroidRuntime8setArgv0EPKcb@plt>:
    5ee0: d0000010     	adrp	x16, 0x7000
    5ee4: f9421a11     	ldr	x17, [x16, #0x430]
    5ee8: 9110c210     	add	x16, x16, #0x430
    5eec: d61f0220     	br	x17

0000000000005ef0 <_ZN7android14AndroidRuntime5startEPKcRKNS_6VectorINS_7String8EEEb@plt>:
    5ef0: d0000010     	adrp	x16, 0x7000
    5ef4: f9421e11     	ldr	x17, [x16, #0x438]
    5ef8: 9110e210     	add	x16, x16, #0x438
    5efc: d61f0220     	br	x17

0000000000005f00 <_ZN7android10VectorImpl13finish_vectorEv@plt>:
    5f00: d0000010     	adrp	x16, 0x7000
    5f04: f9422211     	ldr	x17, [x16, #0x440]
    5f08: 91110210     	add	x16, x16, #0x440
    5f0c: d61f0220     	br	x17

0000000000005f10 <_ZN7android10VectorImplD2Ev@plt>:
    5f10: d0000010     	adrp	x16, 0x7000
    5f14: f9422611     	ldr	x17, [x16, #0x448]
    5f18: 91112210     	add	x16, x16, #0x448
    5f1c: d61f0220     	br	x17

0000000000005f20 <_ZN7android14AndroidRuntimeD2Ev@plt>:
    5f20: d0000010     	adrp	x16, 0x7000
    5f24: f9422a11     	ldr	x17, [x16, #0x450]
    5f28: 91114210     	add	x16, x16, #0x450
    5f2c: d61f0220     	br	x17

0000000000005f30 <__stack_chk_fail@plt>:
    5f30: d0000010     	adrp	x16, 0x7000
    5f34: f9422e11     	ldr	x17, [x16, #0x458]
    5f38: 91116210     	add	x16, x16, #0x458
    5f3c: d61f0220     	br	x17

0000000000005f40 <fwrite@plt>:
    5f40: d0000010     	adrp	x16, 0x7000
    5f44: f9423211     	ldr	x17, [x16, #0x460]
    5f48: 91118210     	add	x16, x16, #0x460
    5f4c: d61f0220     	br	x17

0000000000005f50 <__android_log_assert@plt>:
    5f50: d0000010     	adrp	x16, 0x7000
    5f54: f9423611     	ldr	x17, [x16, #0x468]
    5f58: 9111a210     	add	x16, x16, #0x468
    5f5c: d61f0220     	br	x17

0000000000005f60 <strerror@plt>:
    5f60: d0000010     	adrp	x16, 0x7000
    5f64: f9423a11     	ldr	x17, [x16, #0x470]
    5f68: 9111c210     	add	x16, x16, #0x470
    5f6c: d61f0220     	br	x17

0000000000005f70 <_ZdlPv@plt>:
    5f70: d0000010     	adrp	x16, 0x7000
    5f74: f9423e11     	ldr	x17, [x16, #0x478]
    5f78: 9111e210     	add	x16, x16, #0x478
    5f7c: d61f0220     	br	x17

0000000000005f80 <_ZN7android14AndroidRuntime16toSlashClassNameEPKc@plt>:
    5f80: d0000010     	adrp	x16, 0x7000
    5f84: f9424211     	ldr	x17, [x16, #0x480]
    5f88: 91120210     	add	x16, x16, #0x480
    5f8c: d61f0220     	br	x17

0000000000005f90 <free@plt>:
    5f90: d0000010     	adrp	x16, 0x7000
    5f94: f9424611     	ldr	x17, [x16, #0x488]
    5f98: 91122210     	add	x16, x16, #0x488
    5f9c: d61f0220     	br	x17

0000000000005fa0 <_ZN7android12ProcessState4selfEv@plt>:
    5fa0: d0000010     	adrp	x16, 0x7000
    5fa4: f9424a11     	ldr	x17, [x16, #0x490]
    5fa8: 91124210     	add	x16, x16, #0x490
    5fac: d61f0220     	br	x17

0000000000005fb0 <_ZN7android12ProcessState15startThreadPoolEv@plt>:
    5fb0: d0000010     	adrp	x16, 0x7000
    5fb4: f9424e11     	ldr	x17, [x16, #0x498]
    5fb8: 91126210     	add	x16, x16, #0x498
    5fbc: d61f0220     	br	x17

0000000000005fc0 <_ZN7android14AndroidRuntime10getRuntimeEv@plt>:
    5fc0: d0000010     	adrp	x16, 0x7000
    5fc4: f9425211     	ldr	x17, [x16, #0x4a0]
    5fc8: 91128210     	add	x16, x16, #0x4a0
    5fcc: d61f0220     	br	x17

0000000000005fd0 <_ZN7android14AndroidRuntime8callMainERKNS_7String8EP7_jclassRKNS_6VectorIS1_EE@plt>:
    5fd0: d0000010     	adrp	x16, 0x7000
    5fd4: f9425611     	ldr	x17, [x16, #0x4a8]
    5fd8: 9112a210     	add	x16, x16, #0x4a8
    5fdc: d61f0220     	br	x17

0000000000005fe0 <_ZN7android14IPCThreadState4selfEv@plt>:
    5fe0: d0000010     	adrp	x16, 0x7000
    5fe4: f9425a11     	ldr	x17, [x16, #0x4b0]
    5fe8: 9112c210     	add	x16, x16, #0x4b0
    5fec: d61f0220     	br	x17

0000000000005ff0 <_ZN7android14IPCThreadState11stopProcessEb@plt>:
    5ff0: d0000010     	adrp	x16, 0x7000
    5ff4: f9425e11     	ldr	x17, [x16, #0x4b8]
    5ff8: 9112e210     	add	x16, x16, #0x4b8
    5ffc: d61f0220     	br	x17

0000000000006000 <_ZN7android8hardware14IPCThreadState4selfEv@plt>:
    6000: b0000010     	adrp	x16, 0x7000
    6004: f9426211     	ldr	x17, [x16, #0x4c0]
    6008: 91130210     	add	x16, x16, #0x4c0
    600c: d61f0220     	br	x17

0000000000006010 <_ZN7android8hardware14IPCThreadState11stopProcessEb@plt>:
    6010: b0000010     	adrp	x16, 0x7000
    6014: f9426611     	ldr	x17, [x16, #0x4c8]
    6018: 91132210     	add	x16, x16, #0x4c8
    601c: d61f0220     	br	x17

0000000000006020 <_ZNK7android7RefBase9decStrongEPKv@plt>:
    6020: b0000010     	adrp	x16, 0x7000
    6024: f9426a11     	ldr	x17, [x16, #0x4d0]
    6028: 91134210     	add	x16, x16, #0x4d0
    602c: d61f0220     	br	x17

0000000000006030 <vsnprintf@plt>:
    6030: b0000010     	adrp	x16, 0x7000
    6034: f9426e11     	ldr	x17, [x16, #0x4d8]
    6038: 91136210     	add	x16, x16, #0x4d8
    603c: d61f0220     	br	x17

0000000000006040 <_ZN7android7String8C1ERKS0_@plt>:
    6040: b0000010     	adrp	x16, 0x7000
    6044: f9427211     	ldr	x17, [x16, #0x4e0]
    6048: 91138210     	add	x16, x16, #0x4e0
    604c: d61f0220     	br	x17

0000000000006050 <memmove@plt>:
    6050: b0000010     	adrp	x16, 0x7000
    6054: f9427611     	ldr	x17, [x16, #0x4e8]
    6058: 9113a210     	add	x16, x16, #0x4e8
    605c: d61f0220     	br	x17

0000000000006060 <memcpy@plt>:
    6060: b0000010     	adrp	x16, 0x7000
    6064: f9427a11     	ldr	x17, [x16, #0x4f0]
    6068: 9113c210     	add	x16, x16, #0x4f0
    606c: d61f0220     	br	x17

0000000000006070 <__assert@plt>:
    6070: b0000010     	adrp	x16, 0x7000
    6074: f9427e11     	ldr	x17, [x16, #0x4f8]
    6078: 9113e210     	add	x16, x16, #0x4f8
    607c: d61f0220     	br	x17

0000000000006080 <socket@plt>:
    6080: b0000010     	adrp	x16, 0x7000
    6084: f9428211     	ldr	x17, [x16, #0x500]
    6088: 91140210     	add	x16, x16, #0x500
    608c: d61f0220     	br	x17

0000000000006090 <__strlcpy_chk@plt>:
    6090: b0000010     	adrp	x16, 0x7000
    6094: f9428611     	ldr	x17, [x16, #0x508]
    6098: 91142210     	add	x16, x16, #0x508
    609c: d61f0220     	br	x17

00000000000060a0 <connect@plt>:
    60a0: b0000010     	adrp	x16, 0x7000
    60a4: f9428a11     	ldr	x17, [x16, #0x510]
    60a8: 91144210     	add	x16, x16, #0x510
    60ac: d61f0220     	br	x17

00000000000060b0 <gettid@plt>:
    60b0: b0000010     	adrp	x16, 0x7000
    60b4: f9428e11     	ldr	x17, [x16, #0x518]
    60b8: 91146210     	add	x16, x16, #0x518
    60bc: d61f0220     	br	x17

00000000000060c0 <clock_gettime@plt>:
    60c0: b0000010     	adrp	x16, 0x7000
    60c4: f9429211     	ldr	x17, [x16, #0x520]
    60c8: 91148210     	add	x16, x16, #0x520
    60cc: d61f0220     	br	x17

00000000000060d0 <writev@plt>:
    60d0: b0000010     	adrp	x16, 0x7000
    60d4: f9429611     	ldr	x17, [x16, #0x528]
    60d8: 9114a210     	add	x16, x16, #0x528
    60dc: d61f0220     	br	x17

00000000000060e0 <syscall@plt>:
    60e0: b0000010     	adrp	x16, 0x7000
    60e4: f9429a11     	ldr	x17, [x16, #0x530]
    60e8: 9114c210     	add	x16, x16, #0x530
    60ec: d61f0220     	br	x17

00000000000060f0 <__memcpy_chk@plt>:
    60f0: b0000010     	adrp	x16, 0x7000
    60f4: f9429e11     	ldr	x17, [x16, #0x538]
    60f8: 9114e210     	add	x16, x16, #0x538
    60fc: d61f0220     	br	x17

0000000000006100 <android_set_abort_message@plt>:
    6100: b0000010     	adrp	x16, 0x7000
    6104: f942a211     	ldr	x17, [x16, #0x540]
    6108: 91150210     	add	x16, x16, #0x540
    610c: d61f0220     	br	x17

0000000000006110 <_ZNSt3__111__call_onceERVmPvPFvS2_E@plt>:
    6110: b0000010     	adrp	x16, 0x7000
    6114: f942a611     	ldr	x17, [x16, #0x548]
    6118: 91152210     	add	x16, x16, #0x548
    611c: d61f0220     	br	x17

0000000000006120 <pthread_getspecific@plt>:
    6120: b0000010     	adrp	x16, 0x7000
    6124: f942aa11     	ldr	x17, [x16, #0x550]
    6128: 91154210     	add	x16, x16, #0x550
    612c: d61f0220     	br	x17

0000000000006130 <sigemptyset@plt>:
    6130: b0000010     	adrp	x16, 0x7000
    6134: f942ae11     	ldr	x17, [x16, #0x558]
    6138: 91156210     	add	x16, x16, #0x558
    613c: d61f0220     	br	x17

0000000000006140 <sigaddset@plt>:
    6140: b0000010     	adrp	x16, 0x7000
    6144: f942b211     	ldr	x17, [x16, #0x560]
    6148: 91158210     	add	x16, x16, #0x560
    614c: d61f0220     	br	x17

0000000000006150 <sigismember@plt>:
    6150: b0000010     	adrp	x16, 0x7000
    6154: f942b611     	ldr	x17, [x16, #0x568]
    6158: 9115a210     	add	x16, x16, #0x568
    615c: d61f0220     	br	x17

0000000000006160 <pthread_setspecific@plt>:
    6160: b0000010     	adrp	x16, 0x7000
    6164: f942ba11     	ldr	x17, [x16, #0x570]
    6168: 9115c210     	add	x16, x16, #0x570
    616c: d61f0220     	br	x17

0000000000006170 <abort@plt>:
    6170: b0000010     	adrp	x16, 0x7000
    6174: f942be11     	ldr	x17, [x16, #0x578]
    6178: 9115e210     	add	x16, x16, #0x578
    617c: d61f0220     	br	x17

0000000000006180 <sigdelset@plt>:
    6180: b0000010     	adrp	x16, 0x7000
    6184: f942c211     	ldr	x17, [x16, #0x580]
    6188: 91160210     	add	x16, x16, #0x580
    618c: d61f0220     	br	x17

0000000000006190 <sigfillset64@plt>:
    6190: b0000010     	adrp	x16, 0x7000
    6194: f942c611     	ldr	x17, [x16, #0x588]
    6198: 91162210     	add	x16, x16, #0x588
    619c: d61f0220     	br	x17

00000000000061a0 <pthread_key_create@plt>:
    61a0: b0000010     	adrp	x16, 0x7000
    61a4: f942ca11     	ldr	x17, [x16, #0x590]
    61a8: 91164210     	add	x16, x16, #0x590
    61ac: d61f0220     	br	x17

00000000000061b0 <dlsym@plt>:
    61b0: b0000010     	adrp	x16, 0x7000
    61b4: f942ce11     	ldr	x17, [x16, #0x598]
    61b8: 91166210     	add	x16, x16, #0x598
    61bc: d61f0220     	br	x17

00000000000061c0 <__cxa_guard_acquire@plt>:
    61c0: b0000010     	adrp	x16, 0x7000
    61c4: f942d211     	ldr	x17, [x16, #0x5a0]
    61c8: 91168210     	add	x16, x16, #0x5a0
    61cc: d61f0220     	br	x17

00000000000061d0 <dlopen@plt>:
    61d0: b0000010     	adrp	x16, 0x7000
    61d4: f942d611     	ldr	x17, [x16, #0x5a8]
    61d8: 9116a210     	add	x16, x16, #0x5a8
    61dc: d61f0220     	br	x17

00000000000061e0 <__cxa_guard_release@plt>:
    61e0: b0000010     	adrp	x16, 0x7000
    61e4: f942da11     	ldr	x17, [x16, #0x5b0]
    61e8: 9116c210     	add	x16, x16, #0x5b0
    61ec: d61f0220     	br	x17

00000000000061f0 <dlerror@plt>:
    61f0: b0000010     	adrp	x16, 0x7000
    61f4: f942de11     	ldr	x17, [x16, #0x5b8]
    61f8: 9116e210     	add	x16, x16, #0x5b8
    61fc: d61f0220     	br	x17
